TN:
SF:/home/atcsol/git/FinalProject_UAH/uah_exp_freertos_project_2024_def/uahexplorer_mmesp_project.cpp
FN:26,main
FNDA:1,main
DA:26,1
DA:37,1
DA:38,1
DA:39,1
DA:40,1
DA:41,1
DA:42,1
DA:44,1
DA:46,1
DA:48,0
DA:50,0
end_of_record
SF:/home/atcsol/git/FinalProject_UAH/uah_exp_freertos_project_2024_def/asw/components/uahexplorer/include/public/uahexplorer_iface_v1.h
end_of_record
SF:/home/atcsol/git/FinalProject_UAH/uah_exp_freertos_project_2024_def/service_libraries/edroomsl/edroomsl/include/edroomsl/edroomsl.h
FN:115,_ZN11CEDROOMPoolD0Ev
FNDA:0,_ZN11CEDROOMPoolD0Ev
FN:115,_ZN11CEDROOMPoolD2Ev
FNDA:0,_ZN11CEDROOMPoolD2Ev
FN:236,_ZN17CEDROOMMemoryPoolD0Ev
FNDA:0,_ZN17CEDROOMMemoryPoolD0Ev
FN:236,_ZN17CEDROOMMemoryPoolD2Ev
FNDA:0,_ZN17CEDROOMMemoryPoolD2Ev
FN:314,_ZN26CEDROOMProtectedMemoryPoolD0Ev
FNDA:0,_ZN26CEDROOMProtectedMemoryPoolD0Ev
FN:314,_ZN26CEDROOMProtectedMemoryPoolD2Ev
FNDA:0,_ZN26CEDROOMProtectedMemoryPoolD2Ev
FN:726,_ZN19CEDROOMMessagesPoolD0Ev
FNDA:0,_ZN19CEDROOMMessagesPoolD0Ev
FN:726,_ZN19CEDROOMMessagesPoolD2Ev
FNDA:0,_ZN19CEDROOMMessagesPoolD2Ev
FN:761,_ZN26CEDROOMTimeOutMessagesPoolD0Ev
FNDA:0,_ZN26CEDROOMTimeOutMessagesPoolD0Ev
FN:761,_ZN26CEDROOMTimeOutMessagesPoolD2Ev
FNDA:0,_ZN26CEDROOMTimeOutMessagesPoolD2Ev
FN:1812,_ZN16CEDROOMTXChannelD0Ev
FNDA:0,_ZN16CEDROOMTXChannelD0Ev
FN:1812,_ZN16CEDROOMTXChannelD2Ev
FNDA:0,_ZN16CEDROOMTXChannelD2Ev
FN:1883,_ZN21CEDROOMLocalTXChannelD0Ev
FNDA:0,_ZN21CEDROOMLocalTXChannelD0Ev
FN:1883,_ZN21CEDROOMLocalTXChannelD2Ev
FNDA:0,_ZN21CEDROOMLocalTXChannelD2Ev
DA:115,0
DA:115,0
DA:236,0
DA:236,0
DA:314,0
DA:314,0
DA:726,0
DA:726,0
DA:761,0
DA:761,0
DA:1812,0
DA:1812,0
DA:1883,0
DA:1883,0
end_of_record
SF:/home/atcsol/git/FinalProject_UAH/uah_exp_freertos_project_2024_def/asw/edroom_glue/include/edroom_glue/edroomdeployment.h
FN:196,_ZN23CEDROOMSystemDeployment14GetComp1MemoryEv
FNDA:1,_ZN23CEDROOMSystemDeployment14GetComp1MemoryEv
FN:197,_ZN23CEDROOMSystemDeployment14GetComp2MemoryEv
FNDA:1,_ZN23CEDROOMSystemDeployment14GetComp2MemoryEv
FN:198,_ZN23CEDROOMSystemDeployment14GetComp3MemoryEv
FNDA:1,_ZN23CEDROOMSystemDeployment14GetComp3MemoryEv
FN:199,_ZN23CEDROOMSystemDeployment14GetComp4MemoryEv
FNDA:1,_ZN23CEDROOMSystemDeployment14GetComp4MemoryEv
FN:200,_ZN23CEDROOMSystemDeployment14GetComp5MemoryEv
FNDA:1,_ZN23CEDROOMSystemDeployment14GetComp5MemoryEv
FN:201,_ZN23CEDROOMSystemDeployment14GetComp6MemoryEv
FNDA:1,_ZN23CEDROOMSystemDeployment14GetComp6MemoryEv
DA:196,1
DA:197,1
DA:198,1
DA:199,1
DA:200,1
DA:201,1
end_of_record
SF:/home/atcsol/git/FinalProject_UAH/uah_exp_freertos_project_2024_def/asw/components/cctm_channelctrl/include/public/cctm_channelctrl_iface_v1.h
end_of_record
SF:/home/atcsol/git/FinalProject_UAH/uah_exp_freertos_project_2024_def/asw/components/cchk_fdirmng/include/public/cchk_fdirmng_iface_v1.h
end_of_record
SF:/home/atcsol/git/FinalProject_UAH/uah_exp_freertos_project_2024_def/service_libraries/edroomsl/edroombp/include/public/edroombp.h
FN:122,_ZN9Pr_KernelD2Ev
FNDA:0,_ZN9Pr_KernelD2Ev
FN:192,_ZN12Pr_SemaphoreD2Ev
FNDA:0,_ZN12Pr_SemaphoreD2Ev
FN:261,_ZN15Pr_SemaphoreBinD2Ev
FNDA:0,_ZN15Pr_SemaphoreBinD2Ev
FN:337,_ZN15Pr_SemaphoreRecD2Ev
FNDA:0,_ZN15Pr_SemaphoreRecD2Ev
FN:533,_ZN7Pr_TaskD2Ev
FNDA:0,_ZN7Pr_TaskD2Ev
DA:122,0
DA:192,0
DA:194,0
DA:195,0
DA:261,0
DA:264,0
DA:337,0
DA:533,0
DA:536,0
end_of_record
SF:/home/atcsol/git/FinalProject_UAH/uah_exp_freertos_project_2024_def/asw/components/ccexplorermanager/include/public/ccexplorermanager_iface_v1.h
end_of_record
SF:/home/atcsol/git/FinalProject_UAH/uah_exp_freertos_project_2024_def/asw/components/ccbkgtcexec/include/public/ccbkgtcexec_iface_v1.h
end_of_record
SF:/home/atcsol/git/FinalProject_UAH/uah_exp_freertos_project_2024_def/asw/components/ccguidance/include/public/ccguidance_iface_v1.h
end_of_record
TN:
SF:/home/atcsol/git/FinalProject_UAH/uah_exp_freertos_project_2024_def/asw/components/ccexplorermanager/include/public/ccexplorermanager_iface_v1.h
end_of_record
SF:/home/atcsol/git/FinalProject_UAH/uah_exp_freertos_project_2024_def/service_libraries/edroomsl/edroombp/include/public/edroombp.h
FN:122,_ZN9Pr_KernelD2Ev
FNDA:1,_ZN9Pr_KernelD2Ev
FN:192,_ZN12Pr_SemaphoreD2Ev
FNDA:0,_ZN12Pr_SemaphoreD2Ev
FN:261,_ZN15Pr_SemaphoreBinD2Ev
FNDA:0,_ZN15Pr_SemaphoreBinD2Ev
FN:533,_ZN7Pr_TaskD2Ev
FNDA:0,_ZN7Pr_TaskD2Ev
DA:122,1
DA:192,0
DA:194,0
DA:195,0
DA:261,0
DA:264,0
DA:533,0
DA:536,0
end_of_record
SF:/home/atcsol/git/FinalProject_UAH/uah_exp_freertos_project_2024_def/asw/components/cchk_fdirmng/include/public/cchk_fdirmng_iface_v1.h
end_of_record
SF:/home/atcsol/git/FinalProject_UAH/uah_exp_freertos_project_2024_def/asw/components/ccbkgtcexec/include/public/ccbkgtcexec_iface_v1.h
end_of_record
SF:/home/atcsol/git/FinalProject_UAH/uah_exp_freertos_project_2024_def/asw/components/ccguidance/include/public/ccguidance_iface_v1.h
end_of_record
SF:/home/atcsol/git/FinalProject_UAH/uah_exp_freertos_project_2024_def/asw/components/uahexplorer/include/public/uahexplorer_iface_v1.h
end_of_record
SF:/home/atcsol/git/FinalProject_UAH/uah_exp_freertos_project_2024_def/asw/edroom_glue/src/edroomdeployment.cpp
FN:11,_Z8MainWaitR11UAHExplorerR17CCExplorerManagerR16CCTM_ChannelCtrlR12CCHK_FDIRMngR11CCBKGTCExecR10CCGuidance
FNDA:1,_Z8MainWaitR11UAHExplorerR17CCExplorerManagerR16CCTM_ChannelCtrlR12CCHK_FDIRMngR11CCBKGTCExecR10CCGuidance
FN:38,_ZN19CEDROOMSystemMemory9SetMemoryEv
FNDA:1,_ZN19CEDROOMSystemMemory9SetMemoryEv
FN:57,_ZN20CEDROOMSystemCommSAP13SetComponentsEP11UAHExplorerP17CCExplorerManagerP16CCTM_ChannelCtrlP12CCHK_FDIRMngP11CCBKGTCExecP10CCGuidance
FNDA:1,_ZN20CEDROOMSystemCommSAP13SetComponentsEP11UAHExplorerP17CCExplorerManagerP16CCTM_ChannelCtrlP12CCHK_FDIRMngP11CCBKGTCExecP10CCGuidance
FN:79,_ZN20CEDROOMSystemCommSAP57C2ExplorerManager_PGuidanceCtrl__C6Guidance_PGuidanceCtrlEi
FNDA:2,_ZN20CEDROOMSystemCommSAP57C2ExplorerManager_PGuidanceCtrl__C6Guidance_PGuidanceCtrlEi
FN:94,_ZN20CEDROOMSystemCommSAP57C6Guidance_PGuidanceCtrl__C2ExplorerManager_PGuidanceCtrlEi
FNDA:0,_ZN20CEDROOMSystemCommSAP57C6Guidance_PGuidanceCtrl__C2ExplorerManager_PGuidanceCtrlEi
FN:107,_ZN20CEDROOMSystemCommSAP59C6Guidance_PTMChannelCtrl__C3TM_ChannelCtrl_PTMChannelCtrl4Ei
FNDA:2,_ZN20CEDROOMSystemCommSAP59C6Guidance_PTMChannelCtrl__C3TM_ChannelCtrl_PTMChannelCtrl4Ei
FN:122,_ZN20CEDROOMSystemCommSAP59C3TM_ChannelCtrl_PTMChannelCtrl4__C6Guidance_PTMChannelCtrlEi
FNDA:2,_ZN20CEDROOMSystemCommSAP59C3TM_ChannelCtrl_PTMChannelCtrl4__C6Guidance_PTMChannelCtrlEi
FN:137,_ZN20CEDROOMSystemCommSAP56C5BKGTCExec_PBKGExecCtrl__C2ExplorerManager_PBKGExecCtrlEi
FNDA:0,_ZN20CEDROOMSystemCommSAP56C5BKGTCExec_PBKGExecCtrl__C2ExplorerManager_PBKGExecCtrlEi
FN:150,_ZN20CEDROOMSystemCommSAP56C2ExplorerManager_PBKGExecCtrl__C5BKGTCExec_PBKGExecCtrlEi
FNDA:0,_ZN20CEDROOMSystemCommSAP56C2ExplorerManager_PBKGExecCtrl__C5BKGTCExec_PBKGExecCtrlEi
FN:165,_ZN20CEDROOMSystemCommSAP60C3TM_ChannelCtrl_PTMChannelCtrl3__C5BKGTCExec_PTMChannelCtrlEi
FNDA:0,_ZN20CEDROOMSystemCommSAP60C3TM_ChannelCtrl_PTMChannelCtrl3__C5BKGTCExec_PTMChannelCtrlEi
FN:180,_ZN20CEDROOMSystemCommSAP60C5BKGTCExec_PTMChannelCtrl__C3TM_ChannelCtrl_PTMChannelCtrl3Ei
FNDA:0,_ZN20CEDROOMSystemCommSAP60C5BKGTCExec_PTMChannelCtrl__C3TM_ChannelCtrl_PTMChannelCtrl3Ei
FN:195,_ZN20CEDROOMSystemCommSAP61C4HK_FDIRMng_PTMChannelCtrl__C3TM_ChannelCtrl_PTMChannelCtrl2Ei
FNDA:59,_ZN20CEDROOMSystemCommSAP61C4HK_FDIRMng_PTMChannelCtrl__C3TM_ChannelCtrl_PTMChannelCtrl2Ei
FN:210,_ZN20CEDROOMSystemCommSAP61C3TM_ChannelCtrl_PTMChannelCtrl2__C4HK_FDIRMng_PTMChannelCtrlEi
FNDA:59,_ZN20CEDROOMSystemCommSAP61C3TM_ChannelCtrl_PTMChannelCtrl2__C4HK_FDIRMng_PTMChannelCtrlEi
FN:225,_ZN20CEDROOMSystemCommSAP57C2ExplorerManager_PHK_FDIRCtrl__C4HK_FDIRMng_PHK_FDIRCtrlEi
FNDA:0,_ZN20CEDROOMSystemCommSAP57C2ExplorerManager_PHK_FDIRCtrl__C4HK_FDIRMng_PHK_FDIRCtrlEi
FN:240,_ZN20CEDROOMSystemCommSAP57C4HK_FDIRMng_PHK_FDIRCtrl__C2ExplorerManager_PHK_FDIRCtrlEi
FNDA:0,_ZN20CEDROOMSystemCommSAP57C4HK_FDIRMng_PHK_FDIRCtrl__C2ExplorerManager_PHK_FDIRCtrlEi
FN:253,_ZN20CEDROOMSystemCommSAP65C2ExplorerManager_PTMChannelCtrl__C3TM_ChannelCtrl_PTMChannelCtrlEi
FNDA:4,_ZN20CEDROOMSystemCommSAP65C2ExplorerManager_PTMChannelCtrl__C3TM_ChannelCtrl_PTMChannelCtrlEi
FN:268,_ZN20CEDROOMSystemCommSAP65C3TM_ChannelCtrl_PTMChannelCtrl__C2ExplorerManager_PTMChannelCtrlEi
FNDA:4,_ZN20CEDROOMSystemCommSAP65C3TM_ChannelCtrl_PTMChannelCtrl__C2ExplorerManager_PTMChannelCtrlEi
FN:288,_ZN20CEDROOMSystemCommSAP18RegisterInterfacesEv
FNDA:1,_ZN20CEDROOMSystemCommSAP18RegisterInterfacesEv
FN:327,_ZN20CEDROOMSystemCommSAP19SetLocalConnectionsEv
FNDA:1,_ZN20CEDROOMSystemCommSAP19SetLocalConnectionsEv
FN:363,_ZN20CEDROOMSystemCommSAP20SetRemoteConnectionsEv
FNDA:1,_ZN20CEDROOMSystemCommSAP20SetRemoteConnectionsEv
FN:370,_ZN20CEDROOMSystemCommSAP14SetConnectionsEv
FNDA:1,_ZN20CEDROOMSystemCommSAP14SetConnectionsEv
FN:380,_ZN23CEDROOMSystemDeploymentC2Ev
FNDA:1,_ZN23CEDROOMSystemDeploymentC2Ev
FN:391,_ZN23CEDROOMSystemDeployment6ConfigEP11UAHExplorerP17CCExplorerManagerP16CCTM_ChannelCtrlP12CCHK_FDIRMngP11CCBKGTCExecP10CCGuidance
FNDA:1,_ZN23CEDROOMSystemDeployment6ConfigEP11UAHExplorerP17CCExplorerManagerP16CCTM_ChannelCtrlP12CCHK_FDIRMngP11CCBKGTCExecP10CCGuidance
FN:420,_ZN23CEDROOMSystemDeployment15StartComponentsEv
FNDA:1,_ZN23CEDROOMSystemDeployment15StartComponentsEv
FN:433,_ZN23CEDROOMSystemDeployment5StartEv
FNDA:1,_ZN23CEDROOMSystemDeployment5StartEv
FN:468,_ZN23CEDROOMSystemDeployment9main_taskEv
FNDA:1,_ZN23CEDROOMSystemDeployment9main_taskEv
DA:11,1
DA:18,1
DA:32,20
DA:38,1
DA:40,1
DA:41,1
DA:42,1
DA:43,1
DA:44,1
DA:45,1
DA:46,1
DA:47,1
DA:48,1
DA:49,1
DA:50,1
DA:51,1
DA:52,1
DA:57,1
DA:63,1
DA:64,1
DA:65,1
DA:66,1
DA:67,1
DA:68,1
DA:69,1
DA:79,2
DA:83,2
DA:85,2
DA:87,0
DA:90,2
DA:94,0
DA:100,0
DA:103,0
DA:107,2
DA:111,2
DA:113,2
DA:115,0
DA:118,2
DA:122,2
DA:126,2
DA:128,2
DA:130,0
DA:133,2
DA:137,0
DA:143,0
DA:146,0
DA:150,0
DA:154,0
DA:156,0
DA:158,0
DA:161,0
DA:165,0
DA:169,0
DA:171,0
DA:173,0
DA:176,0
DA:180,0
DA:184,0
DA:186,0
DA:188,0
DA:191,0
DA:195,59
DA:199,59
DA:201,59
DA:203,0
DA:206,59
DA:210,59
DA:214,59
DA:216,59
DA:218,0
DA:221,59
DA:225,0
DA:229,0
DA:231,0
DA:233,0
DA:236,0
DA:240,0
DA:246,0
DA:249,0
DA:253,4
DA:257,4
DA:259,4
DA:261,0
DA:264,4
DA:268,4
DA:272,4
DA:274,4
DA:276,0
DA:279,4
DA:288,1
DA:291,1
DA:294,1
DA:295,1
DA:296,1
DA:297,1
DA:298,1
DA:299,1
DA:302,1
DA:303,1
DA:304,1
DA:305,1
DA:308,1
DA:309,1
DA:310,1
DA:313,1
DA:314,1
DA:317,1
DA:318,1
DA:319,1
DA:321,1
DA:327,1
DA:329,1
DA:333,1
DA:337,1
DA:341,1
DA:345,1
DA:349,1
DA:353,1
DA:357,1
DA:363,1
DA:365,1
DA:370,1
DA:372,1
DA:373,1
DA:375,1
DA:380,1
DA:384,1
DA:386,1
DA:391,1
DA:398,1
DA:399,1
DA:400,1
DA:401,1
DA:402,1
DA:403,1
DA:405,1
DA:412,1
DA:413,1
DA:415,1
DA:420,1
DA:421,1
DA:422,1
DA:423,1
DA:424,1
DA:425,1
DA:426,1
DA:428,1
DA:433,1
DA:437,1
DA:439,1
DA:457,0
DA:468,1
DA:470,1
DA:471,1
DA:472,1
DA:473,1
DA:474,1
DA:475,1
DA:476,1
DA:478,0
end_of_record
SF:/home/atcsol/git/FinalProject_UAH/uah_exp_freertos_project_2024_def/asw/edroom_glue/include/edroom_glue/edroomdeployment.h
end_of_record
SF:/home/atcsol/git/FinalProject_UAH/uah_exp_freertos_project_2024_def/asw/components/cctm_channelctrl/include/public/cctm_channelctrl_iface_v1.h
end_of_record
SF:/home/atcsol/git/FinalProject_UAH/uah_exp_freertos_project_2024_def/service_libraries/edroomsl/edroomsl/include/edroomsl/edroomsl.h
FN:115,_ZN11CEDROOMPoolD0Ev
FNDA:0,_ZN11CEDROOMPoolD0Ev
FN:115,_ZN11CEDROOMPoolD2Ev
FNDA:0,_ZN11CEDROOMPoolD2Ev
FN:236,_ZN17CEDROOMMemoryPoolD0Ev
FNDA:0,_ZN17CEDROOMMemoryPoolD0Ev
FN:236,_ZN17CEDROOMMemoryPoolD2Ev
FNDA:0,_ZN17CEDROOMMemoryPoolD2Ev
FN:726,_ZN19CEDROOMMessagesPoolD0Ev
FNDA:0,_ZN19CEDROOMMessagesPoolD0Ev
FN:726,_ZN19CEDROOMMessagesPoolD2Ev
FNDA:6,_ZN19CEDROOMMessagesPoolD2Ev
FN:761,_ZN26CEDROOMTimeOutMessagesPoolD0Ev
FNDA:0,_ZN26CEDROOMTimeOutMessagesPoolD0Ev
FN:761,_ZN26CEDROOMTimeOutMessagesPoolD2Ev
FNDA:3,_ZN26CEDROOMTimeOutMessagesPoolD2Ev
FN:1812,_ZN16CEDROOMTXChannelD0Ev
FNDA:0,_ZN16CEDROOMTXChannelD0Ev
FN:1812,_ZN16CEDROOMTXChannelD2Ev
FNDA:0,_ZN16CEDROOMTXChannelD2Ev
FN:1883,_ZN21CEDROOMLocalTXChannelD0Ev
FNDA:0,_ZN21CEDROOMLocalTXChannelD0Ev
FN:1883,_ZN21CEDROOMLocalTXChannelD2Ev
FNDA:0,_ZN21CEDROOMLocalTXChannelD2Ev
DA:115,0
DA:115,0
DA:236,0
DA:236,0
DA:726,0
DA:726,6
DA:761,0
DA:761,3
DA:1812,0
DA:1812,0
DA:1883,0
DA:1883,0
end_of_record
TN:
SF:/home/atcsol/git/FinalProject_UAH/uah_exp_freertos_project_2024_def/asw/dataclasses/CDTCHandler/src/cdtchandler.cpp
FN:15,_ZN11CDTCHandler9HandleIRQEv
FNDA:0,_ZN11CDTCHandler9HandleIRQEv
FN:21,_ZN11CDTCHandlerC2Ev
FNDA:84,_ZN11CDTCHandlerC2Ev
FN:28,_ZN11CDTCHandler16StartUpExecutionEv
FNDA:3,_ZN11CDTCHandler16StartUpExecutionEv
FN:46,_ZN11CDTCHandler16FreeTCDescriptorEv
FNDA:3,_ZN11CDTCHandler16FreeTCDescriptorEv
FN:66,_ZN11CDTCHandler12GetNextUInt8Ev
FNDA:0,_ZN11CDTCHandler12GetNextUInt8Ev
FN:75,_ZN11CDTCHandler13GetNextUInt16Ev
FNDA:0,_ZN11CDTCHandler13GetNextUInt16Ev
FN:83,_ZN11CDTCHandler13GetNextUInt32Ev
FNDA:0,_ZN11CDTCHandler13GetNextUInt32Ev
FN:91,_ZN11CDTCHandler13GetNextUInt64Ev
FNDA:0,_ZN11CDTCHandler13GetNextUInt64Ev
FN:100,_ZN11CDTCHandler11GetNextInt8Ev
FNDA:0,_ZN11CDTCHandler11GetNextInt8Ev
FN:109,_ZN11CDTCHandler12GetNextInt16Ev
FNDA:0,_ZN11CDTCHandler12GetNextInt16Ev
FN:118,_ZN11CDTCHandler12GetNextInt32Ev
FNDA:0,_ZN11CDTCHandler12GetNextInt32Ev
FN:126,_ZN11CDTCHandler12GetNextInt64Ev
FNDA:0,_ZN11CDTCHandler12GetNextInt64Ev
FN:136,_ZN11CDTCHandler12GetNextFloatEv
FNDA:4,_ZN11CDTCHandler12GetNextFloatEv
FN:145,_ZN11CDTCHandler11GetPacketIDEv
FNDA:6,_ZN11CDTCHandler11GetPacketIDEv
FN:159,_ZN11CDTCHandler7GetAPIDEv
FNDA:3,_ZN11CDTCHandler7GetAPIDEv
FN:174,_ZN11CDTCHandler14GetPackSeqCtrlEv
FNDA:6,_ZN11CDTCHandler14GetPackSeqCtrlEv
FN:189,_ZN11CDTCHandler11GetSeqFlagsEv
FNDA:0,_ZN11CDTCHandler11GetSeqFlagsEv
FN:205,_ZN11CDTCHandler11GetSeqCountEv
FNDA:0,_ZN11CDTCHandler11GetSeqCountEv
FN:221,_ZN11CDTCHandler13GetPackLengthEv
FNDA:6,_ZN11CDTCHandler13GetPackLengthEv
FN:234,_ZN11CDTCHandler6GetAckEv
FNDA:0,_ZN11CDTCHandler6GetAckEv
FN:247,_ZN11CDTCHandler7GetTypeEv
FNDA:6,_ZN11CDTCHandler7GetTypeEv
FN:260,_ZN11CDTCHandler10GetSubTypeEv
FNDA:6,_ZN11CDTCHandler10GetSubTypeEv
FN:273,_ZN11CDTCHandler11GetSourceIDEv
FNDA:3,_ZN11CDTCHandler11GetSourceIDEv
FN:286,_ZN11CDTCHandler16GetCalculatedCRCEv
FNDA:3,_ZN11CDTCHandler16GetCalculatedCRCEv
FN:300,_ZN11CDTCHandler18GetPacketErrorCtrlEv
FNDA:3,_ZN11CDTCHandler18GetPacketErrorCtrlEv
DA:15,0
DA:17,0
DA:21,84
DA:23,84
DA:24,84
DA:25,84
DA:26,84
DA:28,3
DA:30,3
DA:32,3
DA:34,3
DA:38,0
DA:39,0
DA:42,3
DA:46,3
DA:48,3
DA:50,3
DA:52,3
DA:56,0
DA:58,3
DA:59,3
DA:61,3
DA:66,0
DA:68,0
DA:70,0
DA:71,0
DA:73,0
DA:75,0
DA:77,0
DA:78,0
DA:79,0
DA:81,0
DA:83,0
DA:85,0
DA:86,0
DA:87,0
DA:89,0
DA:91,0
DA:93,0
DA:94,0
DA:95,0
DA:97,0
DA:100,0
DA:102,0
DA:103,0
DA:104,0
DA:106,0
DA:109,0
DA:111,0
DA:112,0
DA:113,0
DA:115,0
DA:118,0
DA:120,0
DA:121,0
DA:122,0
DA:124,0
DA:126,0
DA:128,0
DA:129,0
DA:130,0
DA:132,0
DA:136,4
DA:138,4
DA:139,4
DA:140,4
DA:142,4
DA:145,6
DA:147,6
DA:149,6
DA:151,6
DA:154,6
DA:159,3
DA:161,3
DA:163,3
DA:165,3
DA:167,3
DA:170,3
DA:174,6
DA:176,6
DA:178,6
DA:180,6
DA:181,6
DA:185,6
DA:189,0
DA:191,0
DA:193,0
DA:195,0
DA:196,0
DA:198,0
DA:201,0
DA:205,0
DA:207,0
DA:209,0
DA:211,0
DA:212,0
DA:214,0
DA:218,0
DA:221,6
DA:223,6
DA:225,6
DA:227,6
DA:231,6
DA:234,0
DA:236,0
DA:238,0
DA:240,0
DA:243,0
DA:247,6
DA:249,6
DA:251,6
DA:253,6
DA:256,6
DA:260,6
DA:262,6
DA:264,6
DA:266,6
DA:269,6
DA:273,3
DA:275,3
DA:277,3
DA:279,3
DA:282,3
DA:286,3
DA:288,3
DA:290,3
DA:292,3
DA:293,3
DA:296,3
DA:300,3
DA:302,3
DA:304,3
DA:306,3
DA:308,3
DA:312,3
end_of_record
SF:/home/atcsol/git/FinalProject_UAH/uah_exp_freertos_project_2024_def/asw/dataclasses/CDTCHandler/include/public/cdtchandler.h
FN:91,_ZN11CDTCHandler14IsValidTCFieldEh
FNDA:4,_ZN11CDTCHandler14IsValidTCFieldEh
DA:91,4
DA:92,4
end_of_record
TN:
SF:/home/atcsol/git/FinalProject_UAH/uah_exp_freertos_project_2024_def/asw/dataclasses/CDTMHandler/src/cdtmhandler.cpp
FN:20,_ZN11CDTMHandlerC2Ehh
FNDA:46,_ZN11CDTMHandlerC2Ehh
FN:42,_ZN11CDTMHandler20SetUInt8AppDataFieldEh
FNDA:0,_ZN11CDTMHandler20SetUInt8AppDataFieldEh
FN:55,_ZN11CDTMHandler21SetUInt16AppDataFieldEt
FNDA:241,_ZN11CDTMHandler21SetUInt16AppDataFieldEt
FN:69,_ZN11CDTMHandler21SetUInt32AppDataFieldEj
FNDA:0,_ZN11CDTMHandler21SetUInt32AppDataFieldEj
FN:84,_ZN11CDTMHandler21SetUInt64AppDataFieldEm
FNDA:0,_ZN11CDTMHandler21SetUInt64AppDataFieldEm
FN:99,_ZN11CDTMHandler19SetInt8AppDataFieldEa
FNDA:0,_ZN11CDTMHandler19SetInt8AppDataFieldEa
FN:113,_ZN11CDTMHandler20SetInt16AppDataFieldEs
FNDA:0,_ZN11CDTMHandler20SetInt16AppDataFieldEs
FN:128,_ZN11CDTMHandler20SetInt32AppDataFieldEi
FNDA:0,_ZN11CDTMHandler20SetInt32AppDataFieldEi
FN:144,_ZN11CDTMHandler20SetInt64AppDataFieldEl
FNDA:0,_ZN11CDTMHandler20SetInt64AppDataFieldEl
FN:159,_ZN11CDTMHandler7CloseTMEv
FNDA:46,_ZN11CDTMHandler7CloseTMEv
FN:192,_ZN11CDTMHandler20SetFloatAppDataFieldEf
FNDA:0,_ZN11CDTMHandler20SetFloatAppDataFieldEf
DA:20,46
DA:23,46
DA:25,46
DA:27,46
DA:28,46
DA:29,46
DA:30,46
DA:32,46
DA:35,0
DA:37,0
DA:40,46
DA:42,0
DA:45,0
DA:47,0
DA:49,0
DA:53,0
DA:55,241
DA:58,241
DA:60,241
DA:61,241
DA:63,241
DA:67,241
DA:69,0
DA:72,0
DA:74,0
DA:75,0
DA:77,0
DA:82,0
DA:84,0
DA:87,0
DA:89,0
DA:90,0
DA:92,0
DA:97,0
DA:99,0
DA:103,0
DA:105,0
DA:107,0
DA:111,0
DA:113,0
DA:116,0
DA:118,0
DA:119,0
DA:121,0
DA:126,0
DA:128,0
DA:131,0
DA:133,0
DA:134,0
DA:136,0
DA:142,0
DA:144,0
DA:147,0
DA:149,0
DA:150,0
DA:152,0
DA:156,0
DA:159,46
DA:161,46
DA:163,46
DA:165,46
DA:166,46
DA:169,46
DA:172,46
DA:176,46
DA:179,46
DA:182,46
DA:184,46
DA:189,46
DA:192,0
DA:195,0
DA:197,0
DA:198,0
DA:199,0
DA:201,0
DA:206,0
end_of_record
TN:
SF:/home/atcsol/git/FinalProject_UAH/uah_exp_freertos_project_2024_def/asw/dataclasses/CDTMList/src/cdtmlist.cpp
FN:11,_ZN8CDTMList5AddTME13tm_descriptor
FNDA:46,_ZN8CDTMList5AddTME13tm_descriptor
FN:27,_ZN8CDTMListC2Ev
FNDA:48,_ZN8CDTMListC2Ev
FN:33,_ZN8CDTMListaSERKS_
FNDA:65,_ZN8CDTMListaSERKS_
DA:11,46
DA:13,46
DA:15,46
DA:17,46
DA:19,46
DA:21,46
DA:24,46
DA:27,48
DA:29,48
DA:31,48
DA:33,65
DA:35,65
DA:37,111
DA:38,46
DA:42,65
end_of_record
TN:
SF:/home/atcsol/git/FinalProject_UAH/uah_exp_freertos_project_2024_def/service_libraries/edroomsl/edroombp/include/public/edroombp.h
FN:192,_ZN12Pr_SemaphoreD2Ev
FNDA:0,_ZN12Pr_SemaphoreD2Ev
FN:261,_ZN15Pr_SemaphoreBinD2Ev
FNDA:0,_ZN15Pr_SemaphoreBinD2Ev
FN:337,_ZN15Pr_SemaphoreRecD2Ev
FNDA:0,_ZN15Pr_SemaphoreRecD2Ev
FN:533,_ZN7Pr_TaskD2Ev
FNDA:0,_ZN7Pr_TaskD2Ev
DA:192,0
DA:194,0
DA:195,0
DA:261,0
DA:264,0
DA:337,0
DA:533,0
DA:536,0
end_of_record
SF:/home/atcsol/git/FinalProject_UAH/uah_exp_freertos_project_2024_def/asw/components/cchk_fdirmng/include/public/cchk_fdirmng_iface_v1.h
end_of_record
SF:/home/atcsol/git/FinalProject_UAH/uah_exp_freertos_project_2024_def/asw/components/cchk_fdirmng/src/CCHK_FDIRMngS.cpp
FN:13,_ZN12CCHK_FDIRMngC2Ejj15TEDROOMPriorityjPNS_13CEDROOMMemoryE
FNDA:1,_ZN12CCHK_FDIRMngC2Ejj15TEDROOMPriorityjPNS_13CEDROOMMemoryE
FN:49,_ZN12CCHK_FDIRMng12EDROOMConfigEv
FNDA:0,_ZN12CCHK_FDIRMng12EDROOMConfigEv
FN:60,_ZN12CCHK_FDIRMng11EDROOMStartEv
FNDA:1,_ZN12CCHK_FDIRMng11EDROOMStartEv
FN:85,_ZN12CCHK_FDIRMng15EDROOMBehaviourEv
FNDA:1,_ZN12CCHK_FDIRMng15EDROOMBehaviourEv
FN:114,_ZN12CCHK_FDIRMng13CEDROOMMemory9SetMemoryEjP14CEDROOMMessagePbjPN12CEDROOMQueue10CQueueNodeES3_
FNDA:1,_ZN12CCHK_FDIRMng13CEDROOMMemory9SetMemoryEjP14CEDROOMMessagePbjPN12CEDROOMQueue10CQueueNodeES3_
DA:13,1
DA:17,1
DA:24,1
DA:28,1
DA:32,2
DA:38,1
DA:49,0
DA:53,0
DA:60,1
DA:66,1
DA:70,1
DA:72,1
DA:85,1
DA:88,1
DA:89,1
DA:91,0
DA:114,1
DA:122,1
DA:123,1
DA:125,1
DA:128,1
end_of_record
SF:/home/atcsol/git/FinalProject_UAH/uah_exp_freertos_project_2024_def/service_libraries/edroomsl/edroomsl/include/edroomsl/edroomsl.h
FN:115,_ZN11CEDROOMPoolD0Ev
FNDA:0,_ZN11CEDROOMPoolD0Ev
FN:115,_ZN11CEDROOMPoolD2Ev
FNDA:0,_ZN11CEDROOMPoolD2Ev
FN:236,_ZN17CEDROOMMemoryPoolD0Ev
FNDA:0,_ZN17CEDROOMMemoryPoolD0Ev
FN:236,_ZN17CEDROOMMemoryPoolD2Ev
FNDA:0,_ZN17CEDROOMMemoryPoolD2Ev
FN:314,_ZN26CEDROOMProtectedMemoryPoolD0Ev
FNDA:0,_ZN26CEDROOMProtectedMemoryPoolD0Ev
FN:314,_ZN26CEDROOMProtectedMemoryPoolD2Ev
FNDA:0,_ZN26CEDROOMProtectedMemoryPoolD2Ev
DA:115,0
DA:115,0
DA:236,0
DA:236,0
DA:314,0
DA:314,0
end_of_record
TN:
SF:/home/atcsol/git/FinalProject_UAH/uah_exp_freertos_project_2024_def/asw/dataclasses/CDEventList/include/public/cdeventlist.h
FN:70,_ZN11CDEventList14ClearEventListEv
FNDA:0,_ZN11CDEventList14ClearEventListEv
FN:88,_ZN11CDEventListC2Ev
FNDA:63,_ZN11CDEventListC2Ev
DA:70,0
DA:71,0
DA:72,0
DA:74,0
DA:88,63
DA:90,63
DA:91,63
end_of_record
SF:/home/atcsol/git/FinalProject_UAH/uah_exp_freertos_project_2024_def/service_libraries/edroomsl/edroombp/include/public/edroombp.h
FN:192,_ZN12Pr_SemaphoreD2Ev
FNDA:0,_ZN12Pr_SemaphoreD2Ev
FN:337,_ZN15Pr_SemaphoreRecD2Ev
FNDA:0,_ZN15Pr_SemaphoreRecD2Ev
DA:192,0
DA:194,0
DA:195,0
DA:337,0
end_of_record
SF:/home/atcsol/git/FinalProject_UAH/uah_exp_freertos_project_2024_def/asw/components/cchk_fdirmng/include/public/cchk_fdirmng_iface_v1.h
FN:261,_ZN12CCHK_FDIRMng16EDROOM_CTX_Top_016EDROOMNewMessageEv
FNDA:60,_ZN12CCHK_FDIRMng16EDROOM_CTX_Top_016EDROOMNewMessageEv
DA:261,60
DA:262,60
end_of_record
SF:/home/atcsol/git/FinalProject_UAH/uah_exp_freertos_project_2024_def/asw/components/cchk_fdirmng/src/CCHK_FDIRMngB.cpp
FN:13,_ZN12CCHK_FDIRMng16EDROOM_CTX_Top_0C2ERS_R8CDTMListR7Pr_TimeRNS0_19CEDROOMPOOLCDTMListE
FNDA:1,_ZN12CCHK_FDIRMng16EDROOM_CTX_Top_0C2ERS_R8CDTMListR7Pr_TimeRNS0_19CEDROOMPOOLCDTMListE
FN:30,_ZN12CCHK_FDIRMng16EDROOM_CTX_Top_0C2ERS0_
FNDA:0,_ZN12CCHK_FDIRMng16EDROOM_CTX_Top_0C2ERS0_
FN:47,_ZN12CCHK_FDIRMng16EDROOM_CTX_Top_024EDROOMSearchContextTransER14TEDROOMTransId
FNDA:0,_ZN12CCHK_FDIRMng16EDROOM_CTX_Top_024EDROOMSearchContextTransER14TEDROOMTransId
FN:71,_ZN12CCHK_FDIRMng16EDROOM_CTX_Top_010FDoHK_FDIREv
FNDA:59,_ZN12CCHK_FDIRMng16EDROOM_CTX_Top_010FDoHK_FDIREv
FN:92,_ZN12CCHK_FDIRMng16EDROOM_CTX_Top_015FExecHK_FDIR_TCEv
FNDA:0,_ZN12CCHK_FDIRMng16EDROOM_CTX_Top_015FExecHK_FDIR_TCEv
FN:108,_ZN12CCHK_FDIRMng16EDROOM_CTX_Top_012FInitHK_FDIREv
FNDA:1,_ZN12CCHK_FDIRMng16EDROOM_CTX_Top_012FInitHK_FDIREv
FN:125,_ZN12CCHK_FDIRMng16EDROOM_CTX_Top_015FInvokeTxTMListEv
FNDA:59,_ZN12CCHK_FDIRMng16EDROOM_CTX_Top_015FInvokeTxTMListEv
FN:141,_ZN12CCHK_FDIRMng16EDROOM_CTX_Top_016FTriggerEvActionEv
FNDA:0,_ZN12CCHK_FDIRMng16EDROOM_CTX_Top_016FTriggerEvActionEv
FN:151,_ZN12CCHK_FDIRMng16EDROOM_CTX_Top_016GPendingEvActionEv
FNDA:59,_ZN12CCHK_FDIRMng16EDROOM_CTX_Top_016GPendingEvActionEv
FN:167,_ZN12CCHK_FDIRMng16EDROOM_CTX_Top_019CEDROOMPOOLCDTMListC2EjP8CDTMListPb
FNDA:1,_ZN12CCHK_FDIRMng16EDROOM_CTX_Top_019CEDROOMPOOLCDTMListC2EjP8CDTMListPb
FN:174,_ZN12CCHK_FDIRMng16EDROOM_CTX_Top_019CEDROOMPOOLCDTMList9AllocDataEv
FNDA:59,_ZN12CCHK_FDIRMng16EDROOM_CTX_Top_019CEDROOMPOOLCDTMList9AllocDataEv
FN:191,_ZN12CCHK_FDIRMng16EDROOM_SUB_Top_0C2ERS_PNS_13CEDROOMMemoryE
FNDA:1,_ZN12CCHK_FDIRMng16EDROOM_SUB_Top_0C2ERS_PNS_13CEDROOMMemoryE
FN:206,_ZN12CCHK_FDIRMng16EDROOM_SUB_Top_015EDROOMBehaviourEv
FNDA:1,_ZN12CCHK_FDIRMng16EDROOM_SUB_Top_015EDROOMBehaviourEv
FN:301,_ZN12CCHK_FDIRMng16EDROOM_SUB_Top_010EDROOMInitEv
FNDA:1,_ZN12CCHK_FDIRMng16EDROOM_SUB_Top_010EDROOMInitEv
FN:318,_ZN12CCHK_FDIRMng16EDROOM_SUB_Top_014EDROOMIArrivalEv
FNDA:1,_ZN12CCHK_FDIRMng16EDROOM_SUB_Top_014EDROOMIArrivalEv
FN:340,_ZN12CCHK_FDIRMng16EDROOM_SUB_Top_018EDROOMReadyArrivalEv
FNDA:60,_ZN12CCHK_FDIRMng16EDROOM_SUB_Top_018EDROOMReadyArrivalEv
DA:13,1
DA:16,1
DA:18,1
DA:19,1
DA:20,1
DA:21,1
DA:22,1
DA:23,1
DA:24,1
DA:25,1
DA:26,1
DA:28,1
DA:30,0
DA:32,0
DA:33,0
DA:34,0
DA:35,0
DA:36,0
DA:37,0
DA:38,0
DA:39,0
DA:40,0
DA:43,0
DA:47,0
DA:51,0
DA:53,0
DA:56,0
DA:58,0
DA:59,0
DA:60,0
DA:61,0
DA:65,0
DA:71,59
DA:75,59
DA:77,59
DA:78,59
DA:80,59
DA:81,59
DA:82,59
DA:83,59
DA:84,59
DA:87,59
DA:88,59
DA:92,0
DA:96,0
DA:100,0
DA:102,0
DA:104,0
DA:108,1
DA:112,1
DA:114,1
DA:115,1
DA:116,1
DA:117,1
DA:120,1
DA:121,1
DA:125,59
DA:129,59
DA:133,59
DA:134,59
DA:136,59
DA:137,59
DA:141,0
DA:145,0
DA:147,0
DA:151,59
DA:156,59
DA:167,1
DA:168,1
DA:170,1
DA:172,1
DA:174,59
DA:176,59
DA:191,1
DA:192,1
DA:194,1
DA:195,1
DA:196,1
DA:197,1
DA:198,1
DA:199,1
DA:202,1
DA:206,1
DA:213,1
DA:220,60
DA:224,1
DA:226,1
DA:228,1
DA:229,1
DA:231,0
DA:233,0
DA:235,0
DA:237,0
DA:238,0
DA:240,59
DA:243,59
DA:245,59
DA:247,59
DA:250,0
DA:253,0
DA:257,0
DA:264,59
DA:268,59
DA:270,59
DA:274,60
DA:278,0
DA:280,0
DA:281,0
DA:284,60
DA:286,60
DA:287,59
DA:291,59
DA:293,59
DA:295,0
DA:301,1
DA:304,1
DA:306,1
DA:318,1
DA:324,1
DA:325,1
DA:326,1
DA:340,60
DA:345,60
DA:350,60
DA:352,59
DA:355,0
DA:357,0
DA:361,0
DA:362,0
DA:363,0
DA:366,0
DA:368,59
DA:370,59
DA:374,59
DA:375,59
DA:376,59
DA:379,59
DA:383,59
DA:385,0
DA:389,59
DA:391,59
end_of_record
SF:/home/atcsol/git/FinalProject_UAH/uah_exp_freertos_project_2024_def/service_libraries/edroomsl/edroomsl/include/edroomsl/edroomsl.h
FN:115,_ZN11CEDROOMPoolD0Ev
FNDA:0,_ZN11CEDROOMPoolD0Ev
FN:115,_ZN11CEDROOMPoolD2Ev
FNDA:0,_ZN11CEDROOMPoolD2Ev
FN:236,_ZN17CEDROOMMemoryPoolD0Ev
FNDA:0,_ZN17CEDROOMMemoryPoolD0Ev
FN:236,_ZN17CEDROOMMemoryPoolD2Ev
FNDA:0,_ZN17CEDROOMMemoryPoolD2Ev
FN:314,_ZN26CEDROOMProtectedMemoryPoolD0Ev
FNDA:0,_ZN26CEDROOMProtectedMemoryPoolD0Ev
FN:314,_ZN26CEDROOMProtectedMemoryPoolD2Ev
FNDA:0,_ZN26CEDROOMProtectedMemoryPoolD2Ev
DA:115,0
DA:115,0
DA:236,0
DA:236,0
DA:314,0
DA:314,0
end_of_record
SF:/home/atcsol/git/FinalProject_UAH/uah_exp_freertos_project_2024_def/asw/dataclasses/CDTMList/include/public/cdtmlist.h
FN:48,_ZN8CDTMList5ClearEv
FNDA:65,_ZN8CDTMList5ClearEv
DA:48,65
end_of_record
TN:
SF:/home/atcsol/git/FinalProject_UAH/uah_exp_freertos_project_2024_def/asw/components/ccguidance/include/public/ccguidance_iface_v1.h
FN:259,_ZN10CCGuidance16EDROOM_CTX_Top_016EDROOMNewMessageEv
FNDA:603,_ZN10CCGuidance16EDROOM_CTX_Top_016EDROOMNewMessageEv
DA:259,603
DA:260,603
end_of_record
SF:/home/atcsol/git/FinalProject_UAH/uah_exp_freertos_project_2024_def/asw/components/ccguidance/src/CCGuidanceB.cpp
FN:13,_ZN10CCGuidance16EDROOM_CTX_Top_0C2ERS_R8CDTMListR7Pr_TimeRNS0_19CEDROOMPOOLCDTMListE
FNDA:1,_ZN10CCGuidance16EDROOM_CTX_Top_0C2ERS_R8CDTMListR7Pr_TimeRNS0_19CEDROOMPOOLCDTMListE
FN:30,_ZN10CCGuidance16EDROOM_CTX_Top_0C2ERS0_
FNDA:0,_ZN10CCGuidance16EDROOM_CTX_Top_0C2ERS0_
FN:47,_ZN10CCGuidance16EDROOM_CTX_Top_024EDROOMSearchContextTransER14TEDROOMTransId
FNDA:0,_ZN10CCGuidance16EDROOM_CTX_Top_024EDROOMSearchContextTransER14TEDROOMTransId
FN:71,_ZN10CCGuidance16EDROOM_CTX_Top_013FExecGuidanceEv
FNDA:2,_ZN10CCGuidance16EDROOM_CTX_Top_013FExecGuidanceEv
FN:88,_ZN10CCGuidance16EDROOM_CTX_Top_016FGuidanceControlEv
FNDA:600,_ZN10CCGuidance16EDROOM_CTX_Top_016FGuidanceControlEv
FN:102,_ZN10CCGuidance16EDROOM_CTX_Top_013FInitGuidanceEv
FNDA:1,_ZN10CCGuidance16EDROOM_CTX_Top_013FInitGuidanceEv
FN:117,_ZN10CCGuidance16EDROOM_CTX_Top_015FInvokeTxTMListEv
FNDA:2,_ZN10CCGuidance16EDROOM_CTX_Top_015FInvokeTxTMListEv
FN:138,_ZN10CCGuidance16EDROOM_CTX_Top_019CEDROOMPOOLCDTMListC2EjP8CDTMListPb
FNDA:1,_ZN10CCGuidance16EDROOM_CTX_Top_019CEDROOMPOOLCDTMListC2EjP8CDTMListPb
FN:145,_ZN10CCGuidance16EDROOM_CTX_Top_019CEDROOMPOOLCDTMList9AllocDataEv
FNDA:2,_ZN10CCGuidance16EDROOM_CTX_Top_019CEDROOMPOOLCDTMList9AllocDataEv
FN:162,_ZN10CCGuidance16EDROOM_SUB_Top_0C2ERS_PNS_13CEDROOMMemoryE
FNDA:1,_ZN10CCGuidance16EDROOM_SUB_Top_0C2ERS_PNS_13CEDROOMMemoryE
FN:177,_ZN10CCGuidance16EDROOM_SUB_Top_015EDROOMBehaviourEv
FNDA:1,_ZN10CCGuidance16EDROOM_SUB_Top_015EDROOMBehaviourEv
FN:247,_ZN10CCGuidance16EDROOM_SUB_Top_010EDROOMInitEv
FNDA:1,_ZN10CCGuidance16EDROOM_SUB_Top_010EDROOMInitEv
FN:264,_ZN10CCGuidance16EDROOM_SUB_Top_014EDROOMIArrivalEv
FNDA:1,_ZN10CCGuidance16EDROOM_SUB_Top_014EDROOMIArrivalEv
FN:286,_ZN10CCGuidance16EDROOM_SUB_Top_018EDROOMReadyArrivalEv
FNDA:603,_ZN10CCGuidance16EDROOM_SUB_Top_018EDROOMReadyArrivalEv
DA:13,1
DA:16,1
DA:18,1
DA:19,1
DA:20,1
DA:21,1
DA:22,1
DA:23,1
DA:24,1
DA:25,1
DA:26,1
DA:28,1
DA:30,0
DA:32,0
DA:33,0
DA:34,0
DA:35,0
DA:36,0
DA:37,0
DA:38,0
DA:39,0
DA:40,0
DA:43,0
DA:47,0
DA:51,0
DA:53,0
DA:56,0
DA:58,0
DA:59,0
DA:60,0
DA:61,0
DA:65,0
DA:71,2
DA:75,2
DA:80,2
DA:82,2
DA:84,2
DA:88,600
DA:92,600
DA:93,600
DA:94,600
DA:95,600
DA:97,600
DA:98,600
DA:102,1
DA:106,1
DA:108,1
DA:109,1
DA:110,1
DA:112,1
DA:113,1
DA:117,2
DA:121,2
DA:126,2
DA:127,2
DA:129,2
DA:130,2
DA:138,1
DA:139,1
DA:141,1
DA:143,1
DA:145,2
DA:147,2
DA:162,1
DA:163,1
DA:165,1
DA:166,1
DA:167,1
DA:168,1
DA:169,1
DA:170,1
DA:173,1
DA:177,1
DA:184,1
DA:191,603
DA:195,600
DA:197,600
DA:199,600
DA:200,600
DA:202,2
DA:204,2
DA:206,2
DA:208,2
DA:209,2
DA:211,1
DA:213,1
DA:215,1
DA:216,1
DA:220,603
DA:224,0
DA:226,0
DA:227,0
DA:230,603
DA:232,603
DA:233,602
DA:237,602
DA:239,602
DA:241,0
DA:247,1
DA:250,1
DA:252,1
DA:264,1
DA:270,1
DA:271,1
DA:272,1
DA:286,603
DA:291,603
DA:296,603
DA:298,602
DA:301,600
DA:303,600
DA:307,600
DA:308,600
DA:309,600
DA:312,600
DA:314,2
DA:316,2
DA:320,2
DA:321,2
DA:322,2
DA:325,2
DA:329,602
DA:331,0
DA:335,602
DA:337,602
end_of_record
SF:/home/atcsol/git/FinalProject_UAH/uah_exp_freertos_project_2024_def/service_libraries/edroomsl/edroombp/include/public/edroombp.h
FN:192,_ZN12Pr_SemaphoreD2Ev
FNDA:0,_ZN12Pr_SemaphoreD2Ev
FN:337,_ZN15Pr_SemaphoreRecD2Ev
FNDA:0,_ZN15Pr_SemaphoreRecD2Ev
DA:192,0
DA:194,0
DA:195,0
DA:337,0
end_of_record
SF:/home/atcsol/git/FinalProject_UAH/uah_exp_freertos_project_2024_def/asw/dataclasses/CDEventList/include/public/cdeventlist.h
FN:70,_ZN11CDEventList14ClearEventListEv
FNDA:0,_ZN11CDEventList14ClearEventListEv
FN:88,_ZN11CDEventListC2Ev
FNDA:0,_ZN11CDEventListC2Ev
DA:70,0
DA:71,0
DA:72,0
DA:74,0
DA:88,0
DA:90,0
DA:91,0
end_of_record
SF:/home/atcsol/git/FinalProject_UAH/uah_exp_freertos_project_2024_def/service_libraries/edroomsl/edroomsl/include/edroomsl/edroomsl.h
FN:115,_ZN11CEDROOMPoolD0Ev
FNDA:0,_ZN11CEDROOMPoolD0Ev
FN:115,_ZN11CEDROOMPoolD2Ev
FNDA:0,_ZN11CEDROOMPoolD2Ev
FN:236,_ZN17CEDROOMMemoryPoolD0Ev
FNDA:0,_ZN17CEDROOMMemoryPoolD0Ev
FN:236,_ZN17CEDROOMMemoryPoolD2Ev
FNDA:0,_ZN17CEDROOMMemoryPoolD2Ev
FN:314,_ZN26CEDROOMProtectedMemoryPoolD0Ev
FNDA:0,_ZN26CEDROOMProtectedMemoryPoolD0Ev
FN:314,_ZN26CEDROOMProtectedMemoryPoolD2Ev
FNDA:0,_ZN26CEDROOMProtectedMemoryPoolD2Ev
DA:115,0
DA:115,0
DA:236,0
DA:236,0
DA:314,0
DA:314,0
end_of_record
SF:/home/atcsol/git/FinalProject_UAH/uah_exp_freertos_project_2024_def/asw/dataclasses/CDTMList/include/public/cdtmlist.h
FN:48,_ZN8CDTMList5ClearEv
FNDA:0,_ZN8CDTMList5ClearEv
DA:48,0
end_of_record
TN:
SF:/home/atcsol/git/FinalProject_UAH/uah_exp_freertos_project_2024_def/service_libraries/edroomsl/edroomsl/include/edroomsl/edroomsl.h
FN:115,_ZN11CEDROOMPoolD0Ev
FNDA:0,_ZN11CEDROOMPoolD0Ev
FN:115,_ZN11CEDROOMPoolD2Ev
FNDA:0,_ZN11CEDROOMPoolD2Ev
FN:236,_ZN17CEDROOMMemoryPoolD0Ev
FNDA:0,_ZN17CEDROOMMemoryPoolD0Ev
FN:236,_ZN17CEDROOMMemoryPoolD2Ev
FNDA:0,_ZN17CEDROOMMemoryPoolD2Ev
FN:314,_ZN26CEDROOMProtectedMemoryPoolD0Ev
FNDA:0,_ZN26CEDROOMProtectedMemoryPoolD0Ev
FN:314,_ZN26CEDROOMProtectedMemoryPoolD2Ev
FNDA:0,_ZN26CEDROOMProtectedMemoryPoolD2Ev
DA:115,0
DA:115,0
DA:236,0
DA:236,0
DA:314,0
DA:314,0
end_of_record
SF:/home/atcsol/git/FinalProject_UAH/uah_exp_freertos_project_2024_def/asw/components/ccguidance/src/CCGuidanceS.cpp
FN:13,_ZN10CCGuidanceC2Ejj15TEDROOMPriorityjPNS_13CEDROOMMemoryE
FNDA:1,_ZN10CCGuidanceC2Ejj15TEDROOMPriorityjPNS_13CEDROOMMemoryE
FN:49,_ZN10CCGuidance12EDROOMConfigEv
FNDA:0,_ZN10CCGuidance12EDROOMConfigEv
FN:60,_ZN10CCGuidance11EDROOMStartEv
FNDA:1,_ZN10CCGuidance11EDROOMStartEv
FN:85,_ZN10CCGuidance15EDROOMBehaviourEv
FNDA:1,_ZN10CCGuidance15EDROOMBehaviourEv
FN:114,_ZN10CCGuidance13CEDROOMMemory9SetMemoryEjP14CEDROOMMessagePbjPN12CEDROOMQueue10CQueueNodeES3_
FNDA:1,_ZN10CCGuidance13CEDROOMMemory9SetMemoryEjP14CEDROOMMessagePbjPN12CEDROOMQueue10CQueueNodeES3_
DA:13,1
DA:17,1
DA:24,1
DA:28,1
DA:32,2
DA:38,1
DA:49,0
DA:53,0
DA:60,1
DA:66,1
DA:70,1
DA:72,1
DA:85,1
DA:88,1
DA:89,1
DA:91,0
DA:114,1
DA:122,1
DA:123,1
DA:125,1
DA:128,1
end_of_record
SF:/home/atcsol/git/FinalProject_UAH/uah_exp_freertos_project_2024_def/asw/components/ccguidance/include/public/ccguidance_iface_v1.h
end_of_record
SF:/home/atcsol/git/FinalProject_UAH/uah_exp_freertos_project_2024_def/service_libraries/edroomsl/edroombp/include/public/edroombp.h
FN:192,_ZN12Pr_SemaphoreD2Ev
FNDA:0,_ZN12Pr_SemaphoreD2Ev
FN:261,_ZN15Pr_SemaphoreBinD2Ev
FNDA:0,_ZN15Pr_SemaphoreBinD2Ev
FN:337,_ZN15Pr_SemaphoreRecD2Ev
FNDA:0,_ZN15Pr_SemaphoreRecD2Ev
FN:533,_ZN7Pr_TaskD2Ev
FNDA:0,_ZN7Pr_TaskD2Ev
DA:192,0
DA:194,0
DA:195,0
DA:261,0
DA:264,0
DA:337,0
DA:533,0
DA:536,0
end_of_record
TN:
SF:/home/atcsol/git/FinalProject_UAH/uah_exp_freertos_project_2024_def/service_libraries/edroomsl/edroomsl/include/edroomsl/edroomsl.h
FN:115,_ZN11CEDROOMPoolD0Ev
FNDA:0,_ZN11CEDROOMPoolD0Ev
FN:115,_ZN11CEDROOMPoolD2Ev
FNDA:0,_ZN11CEDROOMPoolD2Ev
FN:236,_ZN17CEDROOMMemoryPoolD0Ev
FNDA:0,_ZN17CEDROOMMemoryPoolD0Ev
FN:236,_ZN17CEDROOMMemoryPoolD2Ev
FNDA:0,_ZN17CEDROOMMemoryPoolD2Ev
FN:314,_ZN26CEDROOMProtectedMemoryPoolD0Ev
FNDA:0,_ZN26CEDROOMProtectedMemoryPoolD0Ev
FN:314,_ZN26CEDROOMProtectedMemoryPoolD2Ev
FNDA:0,_ZN26CEDROOMProtectedMemoryPoolD2Ev
DA:115,0
DA:115,0
DA:236,0
DA:236,0
DA:314,0
DA:314,0
end_of_record
SF:/home/atcsol/git/FinalProject_UAH/uah_exp_freertos_project_2024_def/asw/dataclasses/CDTMList/include/public/cdtmlist.h
FN:48,_ZN8CDTMList5ClearEv
FNDA:0,_ZN8CDTMList5ClearEv
DA:48,0
end_of_record
SF:/home/atcsol/git/FinalProject_UAH/uah_exp_freertos_project_2024_def/asw/components/ccbkgtcexec/include/public/ccbkgtcexec_iface_v1.h
FN:232,_ZN11CCBKGTCExec16EDROOM_CTX_Top_016EDROOMNewMessageEv
FNDA:1,_ZN11CCBKGTCExec16EDROOM_CTX_Top_016EDROOMNewMessageEv
DA:232,1
DA:233,1
end_of_record
SF:/home/atcsol/git/FinalProject_UAH/uah_exp_freertos_project_2024_def/asw/dataclasses/CDEventList/include/public/cdeventlist.h
FN:70,_ZN11CDEventList14ClearEventListEv
FNDA:0,_ZN11CDEventList14ClearEventListEv
FN:88,_ZN11CDEventListC2Ev
FNDA:0,_ZN11CDEventListC2Ev
DA:70,0
DA:71,0
DA:72,0
DA:74,0
DA:88,0
DA:90,0
DA:91,0
end_of_record
SF:/home/atcsol/git/FinalProject_UAH/uah_exp_freertos_project_2024_def/asw/components/ccbkgtcexec/src/CCBKGTCExecB.cpp
FN:13,_ZN11CCBKGTCExec16EDROOM_CTX_Top_0C2ERS_R11CDEventListR8CDTMListRNS0_19CEDROOMPOOLCDTMListE
FNDA:1,_ZN11CCBKGTCExec16EDROOM_CTX_Top_0C2ERS_R11CDEventListR8CDTMListRNS0_19CEDROOMPOOLCDTMListE
FN:29,_ZN11CCBKGTCExec16EDROOM_CTX_Top_0C2ERS0_
FNDA:0,_ZN11CCBKGTCExec16EDROOM_CTX_Top_0C2ERS0_
FN:45,_ZN11CCBKGTCExec16EDROOM_CTX_Top_024EDROOMSearchContextTransER14TEDROOMTransId
FNDA:0,_ZN11CCBKGTCExec16EDROOM_CTX_Top_024EDROOMSearchContextTransER14TEDROOMTransId
FN:69,_ZN11CCBKGTCExec16EDROOM_CTX_Top_010FExecBKGTCEv
FNDA:0,_ZN11CCBKGTCExec16EDROOM_CTX_Top_010FExecBKGTCEv
FN:85,_ZN11CCBKGTCExec16EDROOM_CTX_Top_09FTxTMListEv
FNDA:0,_ZN11CCBKGTCExec16EDROOM_CTX_Top_09FTxTMListEv
FN:105,_ZN11CCBKGTCExec16EDROOM_CTX_Top_019CEDROOMPOOLCDTMListC2EjP8CDTMListPb
FNDA:1,_ZN11CCBKGTCExec16EDROOM_CTX_Top_019CEDROOMPOOLCDTMListC2EjP8CDTMListPb
FN:112,_ZN11CCBKGTCExec16EDROOM_CTX_Top_019CEDROOMPOOLCDTMList9AllocDataEv
FNDA:0,_ZN11CCBKGTCExec16EDROOM_CTX_Top_019CEDROOMPOOLCDTMList9AllocDataEv
FN:129,_ZN11CCBKGTCExec16EDROOM_SUB_Top_0C2ERS_PNS_13CEDROOMMemoryE
FNDA:1,_ZN11CCBKGTCExec16EDROOM_SUB_Top_0C2ERS_PNS_13CEDROOMMemoryE
FN:144,_ZN11CCBKGTCExec16EDROOM_SUB_Top_015EDROOMBehaviourEv
FNDA:1,_ZN11CCBKGTCExec16EDROOM_SUB_Top_015EDROOMBehaviourEv
FN:205,_ZN11CCBKGTCExec16EDROOM_SUB_Top_010EDROOMInitEv
FNDA:1,_ZN11CCBKGTCExec16EDROOM_SUB_Top_010EDROOMInitEv
FN:222,_ZN11CCBKGTCExec16EDROOM_SUB_Top_014EDROOMIArrivalEv
FNDA:1,_ZN11CCBKGTCExec16EDROOM_SUB_Top_014EDROOMIArrivalEv
FN:244,_ZN11CCBKGTCExec16EDROOM_SUB_Top_018EDROOMReadyArrivalEv
FNDA:1,_ZN11CCBKGTCExec16EDROOM_SUB_Top_018EDROOMReadyArrivalEv
DA:13,1
DA:16,1
DA:18,1
DA:19,1
DA:20,1
DA:21,1
DA:22,1
DA:23,1
DA:24,1
DA:25,1
DA:27,1
DA:29,0
DA:31,0
DA:32,0
DA:33,0
DA:34,0
DA:35,0
DA:36,0
DA:37,0
DA:38,0
DA:41,0
DA:45,0
DA:49,0
DA:51,0
DA:54,0
DA:56,0
DA:57,0
DA:58,0
DA:59,0
DA:63,0
DA:69,0
DA:73,0
DA:78,0
DA:79,0
DA:81,0
DA:85,0
DA:89,0
DA:93,0
DA:94,0
DA:96,0
DA:97,0
DA:105,1
DA:106,1
DA:108,1
DA:110,1
DA:112,0
DA:114,0
DA:129,1
DA:130,1
DA:132,1
DA:133,1
DA:134,1
DA:135,1
DA:136,1
DA:137,1
DA:140,1
DA:144,1
DA:151,1
DA:158,1
DA:162,1
DA:164,1
DA:165,1
DA:167,0
DA:169,0
DA:171,0
DA:173,0
DA:174,0
DA:178,1
DA:182,0
DA:184,0
DA:185,0
DA:188,1
DA:190,1
DA:191,0
DA:195,0
DA:197,0
DA:199,0
DA:205,1
DA:208,1
DA:210,1
DA:222,1
DA:228,1
DA:229,1
DA:230,1
DA:244,1
DA:249,1
DA:254,1
DA:256,0
DA:259,0
DA:261,0
DA:265,0
DA:266,0
DA:267,0
DA:270,0
DA:274,0
DA:276,0
DA:280,0
DA:282,0
end_of_record
SF:/home/atcsol/git/FinalProject_UAH/uah_exp_freertos_project_2024_def/service_libraries/edroomsl/edroombp/include/public/edroombp.h
FN:192,_ZN12Pr_SemaphoreD2Ev
FNDA:0,_ZN12Pr_SemaphoreD2Ev
FN:337,_ZN15Pr_SemaphoreRecD2Ev
FNDA:0,_ZN15Pr_SemaphoreRecD2Ev
DA:192,0
DA:194,0
DA:195,0
DA:337,0
end_of_record
TN:
SF:/home/atcsol/git/FinalProject_UAH/uah_exp_freertos_project_2024_def/service_libraries/edroomsl/edroomsl/include/edroomsl/edroomsl.h
FN:115,_ZN11CEDROOMPoolD0Ev
FNDA:0,_ZN11CEDROOMPoolD0Ev
FN:115,_ZN11CEDROOMPoolD2Ev
FNDA:0,_ZN11CEDROOMPoolD2Ev
FN:236,_ZN17CEDROOMMemoryPoolD0Ev
FNDA:0,_ZN17CEDROOMMemoryPoolD0Ev
FN:236,_ZN17CEDROOMMemoryPoolD2Ev
FNDA:0,_ZN17CEDROOMMemoryPoolD2Ev
FN:314,_ZN26CEDROOMProtectedMemoryPoolD0Ev
FNDA:0,_ZN26CEDROOMProtectedMemoryPoolD0Ev
FN:314,_ZN26CEDROOMProtectedMemoryPoolD2Ev
FNDA:0,_ZN26CEDROOMProtectedMemoryPoolD2Ev
DA:115,0
DA:115,0
DA:236,0
DA:236,0
DA:314,0
DA:314,0
end_of_record
SF:/home/atcsol/git/FinalProject_UAH/uah_exp_freertos_project_2024_def/service_libraries/edroomsl/edroombp/include/public/edroombp.h
FN:192,_ZN12Pr_SemaphoreD2Ev
FNDA:0,_ZN12Pr_SemaphoreD2Ev
FN:337,_ZN15Pr_SemaphoreRecD2Ev
FNDA:0,_ZN15Pr_SemaphoreRecD2Ev
DA:192,0
DA:194,0
DA:195,0
DA:337,0
end_of_record
SF:/home/atcsol/git/FinalProject_UAH/uah_exp_freertos_project_2024_def/asw/components/ccbkgtcexec/src/CCBKGTCExecS.cpp
FN:13,_ZN11CCBKGTCExecC2Ejj15TEDROOMPriorityjPNS_13CEDROOMMemoryE
FNDA:1,_ZN11CCBKGTCExecC2Ejj15TEDROOMPriorityjPNS_13CEDROOMMemoryE
FN:41,_ZN11CCBKGTCExec12EDROOMConfigEv
FNDA:0,_ZN11CCBKGTCExec12EDROOMConfigEv
FN:52,_ZN11CCBKGTCExec11EDROOMStartEv
FNDA:1,_ZN11CCBKGTCExec11EDROOMStartEv
FN:73,_ZN11CCBKGTCExec15EDROOMBehaviourEv
FNDA:1,_ZN11CCBKGTCExec15EDROOMBehaviourEv
FN:102,_ZN11CCBKGTCExec13CEDROOMMemory9SetMemoryEjP14CEDROOMMessagePbjPN12CEDROOMQueue10CQueueNodeES3_
FNDA:1,_ZN11CCBKGTCExec13CEDROOMMemory9SetMemoryEjP14CEDROOMMessagePbjPN12CEDROOMQueue10CQueueNodeES3_
DA:13,1
DA:17,1
DA:24,1
DA:30,1
DA:41,0
DA:45,0
DA:52,1
DA:58,1
DA:60,1
DA:73,1
DA:76,1
DA:77,1
DA:79,0
DA:102,1
DA:110,1
DA:111,1
DA:114,1
end_of_record
SF:/home/atcsol/git/FinalProject_UAH/uah_exp_freertos_project_2024_def/asw/components/ccbkgtcexec/include/public/ccbkgtcexec_iface_v1.h
end_of_record
TN:
SF:/home/atcsol/git/FinalProject_UAH/uah_exp_freertos_project_2024_def/service_libraries/edroomsl/edroomsl/include/edroomsl/edroomsl.h
FN:115,_ZN11CEDROOMPoolD0Ev
FNDA:0,_ZN11CEDROOMPoolD0Ev
FN:115,_ZN11CEDROOMPoolD2Ev
FNDA:0,_ZN11CEDROOMPoolD2Ev
FN:236,_ZN17CEDROOMMemoryPoolD0Ev
FNDA:0,_ZN17CEDROOMMemoryPoolD0Ev
FN:236,_ZN17CEDROOMMemoryPoolD2Ev
FNDA:0,_ZN17CEDROOMMemoryPoolD2Ev
FN:314,_ZN26CEDROOMProtectedMemoryPoolD0Ev
FNDA:0,_ZN26CEDROOMProtectedMemoryPoolD0Ev
FN:314,_ZN26CEDROOMProtectedMemoryPoolD2Ev
FNDA:0,_ZN26CEDROOMProtectedMemoryPoolD2Ev
DA:115,0
DA:115,0
DA:236,0
DA:236,0
DA:314,0
DA:314,0
end_of_record
SF:/home/atcsol/git/FinalProject_UAH/uah_exp_freertos_project_2024_def/service_libraries/edroomsl/edroombp/include/public/edroombp.h
FN:192,_ZN12Pr_SemaphoreD2Ev
FNDA:0,_ZN12Pr_SemaphoreD2Ev
FN:261,_ZN15Pr_SemaphoreBinD2Ev
FNDA:0,_ZN15Pr_SemaphoreBinD2Ev
FN:337,_ZN15Pr_SemaphoreRecD2Ev
FNDA:0,_ZN15Pr_SemaphoreRecD2Ev
FN:533,_ZN7Pr_TaskD2Ev
FNDA:0,_ZN7Pr_TaskD2Ev
DA:192,0
DA:194,0
DA:195,0
DA:261,0
DA:264,0
DA:337,0
DA:533,0
DA:536,0
end_of_record
SF:/home/atcsol/git/FinalProject_UAH/uah_exp_freertos_project_2024_def/asw/components/ccexplorermanager/src/CCExplorerManagerS.cpp
FN:25,_ZN17CCExplorerManager33EDROOMIRQ10HandlerTopHalfFunctionEv
FNDA:0,_ZN17CCExplorerManager33EDROOMIRQ10HandlerTopHalfFunctionEv
FN:37,_ZN17CCExplorerManager18EDROOMIRQ10HandlerEv
FNDA:0,_ZN17CCExplorerManager18EDROOMIRQ10HandlerEv
FN:47,_ZN17CCExplorerManager22EDROOMIRQ10IdleHandlerEv
FNDA:0,_ZN17CCExplorerManager22EDROOMIRQ10IdleHandlerEv
FN:55,_ZN17CCExplorerManager25EDROOMIRQ10BottomHalfTaskEv
FNDA:1,_ZN17CCExplorerManager25EDROOMIRQ10BottomHalfTaskEv
FN:132,_ZN17CCExplorerManager33EDROOMIRQ18HandlerTopHalfFunctionEv
FNDA:0,_ZN17CCExplorerManager33EDROOMIRQ18HandlerTopHalfFunctionEv
FN:154,_ZN17CCExplorerManager18EDROOMIRQ18HandlerEv
FNDA:0,_ZN17CCExplorerManager18EDROOMIRQ18HandlerEv
FN:164,_ZN17CCExplorerManager22EDROOMIRQ18IdleHandlerEv
FNDA:0,_ZN17CCExplorerManager22EDROOMIRQ18IdleHandlerEv
FN:172,_ZN17CCExplorerManager25EDROOMIRQ18BottomHalfTaskEv
FNDA:1,_ZN17CCExplorerManager25EDROOMIRQ18BottomHalfTaskEv
FN:233,_ZN17CCExplorerManagerC2Ejj15TEDROOMPriorityjPNS_13CEDROOMMemoryE
FNDA:1,_ZN17CCExplorerManagerC2Ejj15TEDROOMPriorityjPNS_13CEDROOMMemoryE
FN:269,_ZN17CCExplorerManager12EDROOMConfigEv
FNDA:0,_ZN17CCExplorerManager12EDROOMConfigEv
FN:280,_ZN17CCExplorerManager11EDROOMStartEv
FNDA:1,_ZN17CCExplorerManager11EDROOMStartEv
FN:301,_ZN17CCExplorerManager15EDROOMBehaviourEv
FNDA:1,_ZN17CCExplorerManager15EDROOMBehaviourEv
FN:338,_ZN17CCExplorerManager13CEDROOMMemory9SetMemoryEjP14CEDROOMMessagePbjPN12CEDROOMQueue10CQueueNodeES3_
FNDA:1,_ZN17CCExplorerManager13CEDROOMMemory9SetMemoryEjP14CEDROOMMessagePbjPN12CEDROOMQueue10CQueueNodeES3_
DA:25,0
DA:27,0
DA:28,0
DA:29,0
DA:31,0
DA:37,0
DA:39,0
DA:41,0
DA:47,0
DA:49,0
DA:55,1
DA:57,1
DA:62,1
DA:64,0
DA:66,0
DA:76,0
DA:84,0
DA:87,0
DA:89,0
DA:91,0
DA:94,0
DA:96,0
DA:98,0
DA:100,0
DA:132,0
DA:134,0
DA:145,0
DA:146,0
DA:148,0
DA:154,0
DA:156,0
DA:158,0
DA:164,0
DA:166,0
DA:172,1
DA:174,1
DA:179,4
DA:181,3
DA:183,3
DA:191,3
DA:197,3
DA:200,3
DA:202,3
DA:204,3
DA:207,3
DA:209,0
DA:211,3
DA:213,0
DA:233,1
DA:237,1
DA:244,1
DA:248,1
DA:252,2
DA:258,1
DA:269,0
DA:273,0
DA:280,1
DA:286,1
DA:288,1
DA:301,1
DA:304,1
DA:305,1
DA:310,0
DA:314,0
DA:315,0
DA:338,1
DA:346,1
DA:347,1
DA:350,1
end_of_record
SF:/home/atcsol/git/FinalProject_UAH/uah_exp_freertos_project_2024_def/asw/dataclasses/CDEvAction/include/public/cdevaction.h
FN:29,_ZN10CDEvActionC2Ev
FNDA:0,_ZN10CDEvActionC2Ev
DA:29,0
DA:30,0
DA:31,0
DA:33,0
end_of_record
SF:/home/atcsol/git/FinalProject_UAH/uah_exp_freertos_project_2024_def/asw/components/ccexplorermanager/include/public/ccexplorermanager_iface_v1.h
FN:147,_ZN17CCExplorerManager26CEDROOMPOOLIRQ10CDEvActionC2Ev
FNDA:1,_ZN17CCExplorerManager26CEDROOMPOOLIRQ10CDEvActionC2Ev
FN:149,_ZN17CCExplorerManager26CEDROOMPOOLIRQ10CDEvAction9AllocDataEv
FNDA:0,_ZN17CCExplorerManager26CEDROOMPOOLIRQ10CDEvAction9AllocDataEv
FN:188,_ZN17CCExplorerManager27CEDROOMPOOLIRQ18CDTCHandlerC2Ev
FNDA:1,_ZN17CCExplorerManager27CEDROOMPOOLIRQ18CDTCHandlerC2Ev
FN:190,_ZN17CCExplorerManager27CEDROOMPOOLIRQ18CDTCHandler9AllocDataEv
FNDA:3,_ZN17CCExplorerManager27CEDROOMPOOLIRQ18CDTCHandler9AllocDataEv
DA:147,12
DA:149,0
DA:188,12
DA:190,3
end_of_record
TN:
SF:/home/atcsol/git/FinalProject_UAH/uah_exp_freertos_project_2024_def/asw/dataclasses/CDEventList/include/public/cdeventlist.h
FN:70,_ZN11CDEventList14ClearEventListEv
FNDA:0,_ZN11CDEventList14ClearEventListEv
FN:88,_ZN11CDEventListC2Ev
FNDA:0,_ZN11CDEventListC2Ev
DA:70,0
DA:71,0
DA:72,0
DA:74,0
DA:88,0
DA:90,0
DA:91,0
end_of_record
SF:/home/atcsol/git/FinalProject_UAH/uah_exp_freertos_project_2024_def/asw/components/ccexplorermanager/include/public/ccexplorermanager_iface_v1.h
FN:358,_ZN17CCExplorerManager16EDROOM_CTX_Top_016EDROOMNewMessageEv
FNDA:3,_ZN17CCExplorerManager16EDROOM_CTX_Top_016EDROOMNewMessageEv
DA:358,3
DA:359,3
end_of_record
SF:/home/atcsol/git/FinalProject_UAH/uah_exp_freertos_project_2024_def/service_libraries/edroomsl/edroombp/include/public/edroombp.h
FN:192,_ZN12Pr_SemaphoreD2Ev
FNDA:0,_ZN12Pr_SemaphoreD2Ev
FN:337,_ZN15Pr_SemaphoreRecD2Ev
FNDA:0,_ZN15Pr_SemaphoreRecD2Ev
DA:192,0
DA:194,0
DA:195,0
DA:337,0
end_of_record
SF:/home/atcsol/git/FinalProject_UAH/uah_exp_freertos_project_2024_def/asw/components/ccexplorermanager/src/CCExplorerManagerB.cpp
FN:13,_ZN17CCExplorerManager16EDROOM_CTX_Top_0C2ERS_R11CDEventListR11CDTCHandlerR8CDTMListRNS0_19CEDROOMPOOLCDTMListERNS0_22CEDROOMPOOLCDTCHandlerE
FNDA:1,_ZN17CCExplorerManager16EDROOM_CTX_Top_0C2ERS_R11CDEventListR11CDTCHandlerR8CDTMListRNS0_19CEDROOMPOOLCDTMListERNS0_22CEDROOMPOOLCDTCHandlerE
FN:37,_ZN17CCExplorerManager16EDROOM_CTX_Top_0C2ERS0_
FNDA:0,_ZN17CCExplorerManager16EDROOM_CTX_Top_0C2ERS0_
FN:59,_ZN17CCExplorerManager16EDROOM_CTX_Top_024EDROOMSearchContextTransER14TEDROOMTransId
FNDA:0,_ZN17CCExplorerManager16EDROOM_CTX_Top_024EDROOMSearchContextTransER14TEDROOMTransId
FN:83,_ZN17CCExplorerManager16EDROOM_CTX_Top_011FExecPrioTCEv
FNDA:1,_ZN17CCExplorerManager16EDROOM_CTX_Top_011FExecPrioTCEv
FN:93,_ZN17CCExplorerManager16EDROOM_CTX_Top_012FFwdGuidanceEv
FNDA:2,_ZN17CCExplorerManager16EDROOM_CTX_Top_012FFwdGuidanceEv
FN:108,_ZN17CCExplorerManager16EDROOM_CTX_Top_013FFwdHK_FDIRTCEv
FNDA:0,_ZN17CCExplorerManager16EDROOM_CTX_Top_013FFwdHK_FDIRTCEv
FN:123,_ZN17CCExplorerManager16EDROOM_CTX_Top_015FFwdToBKGTCExecEv
FNDA:0,_ZN17CCExplorerManager16EDROOM_CTX_Top_015FFwdToBKGTCExecEv
FN:138,_ZN17CCExplorerManager16EDROOM_CTX_Top_012FGetEvActionEv
FNDA:0,_ZN17CCExplorerManager16EDROOM_CTX_Top_012FGetEvActionEv
FN:154,_ZN17CCExplorerManager16EDROOM_CTX_Top_06FGetTCEv
FNDA:3,_ZN17CCExplorerManager16EDROOM_CTX_Top_06FGetTCEv
FN:170,_ZN17CCExplorerManager16EDROOM_CTX_Top_05FInitEv
FNDA:1,_ZN17CCExplorerManager16EDROOM_CTX_Top_05FInitEv
FN:185,_ZN17CCExplorerManager16EDROOM_CTX_Top_015FInvokeTxTMListEv
FNDA:4,_ZN17CCExplorerManager16EDROOM_CTX_Top_015FInvokeTxTMListEv
FN:201,_ZN17CCExplorerManager16EDROOM_CTX_Top_017FMngTCAcceptationEv
FNDA:3,_ZN17CCExplorerManager16EDROOM_CTX_Top_017FMngTCAcceptationEv
FN:212,_ZN17CCExplorerManager16EDROOM_CTX_Top_015FMngTCRejectionEv
FNDA:0,_ZN17CCExplorerManager16EDROOM_CTX_Top_015FMngTCRejectionEv
FN:225,_ZN17CCExplorerManager16EDROOM_CTX_Top_07FRebootEv
FNDA:1,_ZN17CCExplorerManager16EDROOM_CTX_Top_07FRebootEv
FN:235,_ZN17CCExplorerManager16EDROOM_CTX_Top_09GAcceptTCEv
FNDA:3,_ZN17CCExplorerManager16EDROOM_CTX_Top_09GAcceptTCEv
FN:245,_ZN17CCExplorerManager16EDROOM_CTX_Top_015GFwdToBKGTCExecEv
FNDA:2,_ZN17CCExplorerManager16EDROOM_CTX_Top_015GFwdToBKGTCExecEv
FN:255,_ZN17CCExplorerManager16EDROOM_CTX_Top_013GFwdToHK_FDIREv
FNDA:2,_ZN17CCExplorerManager16EDROOM_CTX_Top_013GFwdToHK_FDIREv
FN:265,_ZN17CCExplorerManager16EDROOM_CTX_Top_015GGuidanceTCExecEv
FNDA:2,_ZN17CCExplorerManager16EDROOM_CTX_Top_015GGuidanceTCExecEv
FN:275,_ZN17CCExplorerManager16EDROOM_CTX_Top_09GToRebootEv
FNDA:3,_ZN17CCExplorerManager16EDROOM_CTX_Top_09GToRebootEv
FN:289,_ZN17CCExplorerManager16EDROOM_CTX_Top_019CEDROOMPOOLCDTMListC2EjP8CDTMListPb
FNDA:1,_ZN17CCExplorerManager16EDROOM_CTX_Top_019CEDROOMPOOLCDTMListC2EjP8CDTMListPb
FN:296,_ZN17CCExplorerManager16EDROOM_CTX_Top_019CEDROOMPOOLCDTMList9AllocDataEv
FNDA:4,_ZN17CCExplorerManager16EDROOM_CTX_Top_019CEDROOMPOOLCDTMList9AllocDataEv
FN:303,_ZN17CCExplorerManager16EDROOM_CTX_Top_022CEDROOMPOOLCDTCHandlerC2EjP11CDTCHandlerPb
FNDA:1,_ZN17CCExplorerManager16EDROOM_CTX_Top_022CEDROOMPOOLCDTCHandlerC2EjP11CDTCHandlerPb
FN:310,_ZN17CCExplorerManager16EDROOM_CTX_Top_022CEDROOMPOOLCDTCHandler9AllocDataEv
FNDA:2,_ZN17CCExplorerManager16EDROOM_CTX_Top_022CEDROOMPOOLCDTCHandler9AllocDataEv
FN:327,_ZN17CCExplorerManager16EDROOM_SUB_Top_0C2ERS_PNS_13CEDROOMMemoryE
FNDA:1,_ZN17CCExplorerManager16EDROOM_SUB_Top_0C2ERS_PNS_13CEDROOMMemoryE
FN:347,_ZN17CCExplorerManager16EDROOM_SUB_Top_015EDROOMBehaviourEv
FNDA:1,_ZN17CCExplorerManager16EDROOM_SUB_Top_015EDROOMBehaviourEv
FN:531,_ZN17CCExplorerManager16EDROOM_SUB_Top_010EDROOMInitEv
FNDA:1,_ZN17CCExplorerManager16EDROOM_SUB_Top_010EDROOMInitEv
FN:548,_ZN17CCExplorerManager16EDROOM_SUB_Top_014EDROOMIArrivalEv
FNDA:1,_ZN17CCExplorerManager16EDROOM_SUB_Top_014EDROOMIArrivalEv
FN:570,_ZN17CCExplorerManager16EDROOM_SUB_Top_020EDROOMValidTCArrivalEv
FNDA:3,_ZN17CCExplorerManager16EDROOM_SUB_Top_020EDROOMValidTCArrivalEv
FN:592,_ZN17CCExplorerManager16EDROOM_SUB_Top_018EDROOMReadyArrivalEv
FNDA:3,_ZN17CCExplorerManager16EDROOM_SUB_Top_018EDROOMReadyArrivalEv
FN:653,_ZN17CCExplorerManager16EDROOM_SUB_Top_019EDROOMRebootArrivalEv
FNDA:0,_ZN17CCExplorerManager16EDROOM_SUB_Top_019EDROOMRebootArrivalEv
DA:13,1
DA:18,1
DA:20,1
DA:21,1
DA:22,1
DA:23,1
DA:24,1
DA:25,1
DA:26,1
DA:27,1
DA:28,1
DA:29,1
DA:30,1
DA:31,1
DA:32,1
DA:33,1
DA:35,1
DA:37,0
DA:39,0
DA:40,0
DA:41,0
DA:42,0
DA:43,0
DA:44,0
DA:45,0
DA:46,0
DA:47,0
DA:48,0
DA:49,0
DA:50,0
DA:51,0
DA:52,0
DA:55,0
DA:59,0
DA:63,0
DA:65,0
DA:68,0
DA:70,0
DA:71,0
DA:72,0
DA:73,0
DA:77,0
DA:83,1
DA:87,1
DA:89,1
DA:93,2
DA:97,2
DA:101,2
DA:103,2
DA:104,2
DA:108,0
DA:112,0
DA:116,0
DA:118,0
DA:119,0
DA:123,0
DA:127,0
DA:131,0
DA:133,0
DA:134,0
DA:138,0
DA:142,0
DA:145,0
DA:150,0
DA:154,3
DA:158,3
DA:162,3
DA:164,3
DA:166,3
DA:170,1
DA:174,1
DA:176,1
DA:177,1
DA:179,1
DA:181,1
DA:185,4
DA:189,4
DA:193,4
DA:194,4
DA:196,4
DA:197,4
DA:201,3
DA:206,3
DA:208,3
DA:212,0
DA:217,0
DA:219,0
DA:221,0
DA:225,1
DA:229,1
DA:231,0
DA:235,3
DA:239,3
DA:245,2
DA:249,2
DA:255,2
DA:259,2
DA:265,2
DA:269,2
DA:275,3
DA:279,3
DA:289,1
DA:290,1
DA:292,1
DA:294,1
DA:296,4
DA:298,4
DA:303,1
DA:304,1
DA:306,1
DA:308,1
DA:310,2
DA:312,2
DA:327,1
DA:328,1
DA:330,1
DA:331,1
DA:332,1
DA:333,1
DA:334,1
DA:335,1
DA:336,1
DA:337,1
DA:338,1
DA:339,1
DA:340,2
DA:343,1
DA:347,1
DA:354,1
DA:361,7
DA:365,1
DA:367,1
DA:369,1
DA:370,1
DA:372,3
DA:375,3
DA:377,3
DA:380,3
DA:382,3
DA:385,3
DA:389,3
DA:395,0
DA:397,0
DA:400,0
DA:404,0
DA:406,3
DA:408,0
DA:410,0
DA:412,0
DA:413,0
DA:415,3
DA:418,3
DA:421,1
DA:423,1
DA:426,1
DA:430,1
DA:433,2
DA:436,0
DA:439,0
DA:443,0
DA:446,2
DA:449,0
DA:452,0
DA:456,0
DA:459,2
DA:462,2
DA:465,2
DA:469,2
DA:475,0
DA:477,0
DA:480,0
DA:484,0
DA:486,3
DA:490,7
DA:494,0
DA:496,0
DA:497,0
DA:500,3
DA:502,3
DA:503,3
DA:506,1
DA:508,1
DA:510,0
DA:511,0
DA:514,3
DA:516,3
DA:517,3
DA:521,6
DA:523,6
DA:525,0
DA:531,1
DA:534,1
DA:536,1
DA:548,1
DA:554,1
DA:555,1
DA:556,1
DA:570,3
DA:576,3
DA:577,3
DA:578,3
DA:592,3
DA:597,3
DA:602,3
DA:604,3
DA:607,3
DA:609,3
DA:613,3
DA:614,3
DA:615,3
DA:618,0
DA:622,0
DA:623,0
DA:624,0
DA:627,3
DA:631,3
DA:633,0
DA:637,3
DA:639,3
DA:653,0
DA:658,0
DA:663,0
DA:665,0
DA:667,0
DA:671,0
DA:673,0
end_of_record
SF:/home/atcsol/git/FinalProject_UAH/uah_exp_freertos_project_2024_def/asw/dataclasses/CDTMList/include/public/cdtmlist.h
FN:48,_ZN8CDTMList5ClearEv
FNDA:0,_ZN8CDTMList5ClearEv
DA:48,0
end_of_record
SF:/home/atcsol/git/FinalProject_UAH/uah_exp_freertos_project_2024_def/service_libraries/edroomsl/edroomsl/include/edroomsl/edroomsl.h
FN:115,_ZN11CEDROOMPoolD0Ev
FNDA:0,_ZN11CEDROOMPoolD0Ev
FN:115,_ZN11CEDROOMPoolD2Ev
FNDA:0,_ZN11CEDROOMPoolD2Ev
FN:236,_ZN17CEDROOMMemoryPoolD0Ev
FNDA:0,_ZN17CEDROOMMemoryPoolD0Ev
FN:236,_ZN17CEDROOMMemoryPoolD2Ev
FNDA:0,_ZN17CEDROOMMemoryPoolD2Ev
FN:314,_ZN26CEDROOMProtectedMemoryPoolD0Ev
FNDA:0,_ZN26CEDROOMProtectedMemoryPoolD0Ev
FN:314,_ZN26CEDROOMProtectedMemoryPoolD2Ev
FNDA:0,_ZN26CEDROOMProtectedMemoryPoolD2Ev
DA:115,0
DA:115,0
DA:236,0
DA:236,0
DA:314,0
DA:314,0
end_of_record
SF:/home/atcsol/git/FinalProject_UAH/uah_exp_freertos_project_2024_def/asw/dataclasses/CDTCHandler/include/public/cdtchandler.h
FN:193,_ZN11CDTCHandler10IsAcceptedEv
FNDA:0,_ZN11CDTCHandler10IsAcceptedEv
FN:202,_ZN11CDTCHandler10IsRebootTCEv
FNDA:3,_ZN11CDTCHandler10IsRebootTCEv
FN:206,_ZN11CDTCHandler11IsHK_FDIRTCEv
FNDA:2,_ZN11CDTCHandler11IsHK_FDIRTCEv
FN:212,_ZN11CDTCHandler7IsBKGTCEv
FNDA:2,_ZN11CDTCHandler7IsBKGTCEv
FN:216,_ZN11CDTCHandler12IsGuidanceTCEv
FNDA:2,_ZN11CDTCHandler12IsGuidanceTCEv
DA:193,0
DA:194,0
DA:202,3
DA:203,3
DA:206,2
DA:207,2
DA:212,2
DA:213,2
DA:216,2
DA:218,2
end_of_record
TN:
SF:/home/atcsol/git/FinalProject_UAH/uah_exp_freertos_project_2024_def/asw/components/uahexplorer/src/UAHExplorerB.cpp
FN:13,_ZN11UAHExplorer16EDROOM_CTX_Top_0C2ERS_R7Pr_Time
FNDA:1,_ZN11UAHExplorer16EDROOM_CTX_Top_0C2ERS_R7Pr_Time
FN:24,_ZN11UAHExplorer16EDROOM_CTX_Top_0C2ERS0_
FNDA:0,_ZN11UAHExplorer16EDROOM_CTX_Top_0C2ERS0_
FN:37,_ZN11UAHExplorer16EDROOM_CTX_Top_024EDROOMSearchContextTransER14TEDROOMTransId
FNDA:0,_ZN11UAHExplorer16EDROOM_CTX_Top_024EDROOMSearchContextTransER14TEDROOMTransId
FN:61,_ZN11UAHExplorer16EDROOM_CTX_Top_014FEmuRxTimeCodeEv
FNDA:60,_ZN11UAHExplorer16EDROOM_CTX_Top_014FEmuRxTimeCodeEv
FN:71,_ZN11UAHExplorer16EDROOM_CTX_Top_05FInitEv
FNDA:1,_ZN11UAHExplorer16EDROOM_CTX_Top_05FInitEv
FN:81,_ZN11UAHExplorer16EDROOM_CTX_Top_010FProgTimerEv
FNDA:61,_ZN11UAHExplorer16EDROOM_CTX_Top_010FProgTimerEv
FN:113,_ZN11UAHExplorer16EDROOM_SUB_Top_0C2ERS_
FNDA:1,_ZN11UAHExplorer16EDROOM_SUB_Top_0C2ERS_
FN:122,_ZN11UAHExplorer16EDROOM_SUB_Top_015EDROOMBehaviourEv
FNDA:1,_ZN11UAHExplorer16EDROOM_SUB_Top_015EDROOMBehaviourEv
FN:185,_ZN11UAHExplorer16EDROOM_SUB_Top_010EDROOMInitEv
FNDA:1,_ZN11UAHExplorer16EDROOM_SUB_Top_010EDROOMInitEv
FN:202,_ZN11UAHExplorer16EDROOM_SUB_Top_014EDROOMIArrivalEv
FNDA:1,_ZN11UAHExplorer16EDROOM_SUB_Top_014EDROOMIArrivalEv
FN:224,_ZN11UAHExplorer16EDROOM_SUB_Top_018EDROOMReadyArrivalEv
FNDA:60,_ZN11UAHExplorer16EDROOM_SUB_Top_018EDROOMReadyArrivalEv
DA:13,1
DA:14,1
DA:16,1
DA:17,1
DA:18,1
DA:19,1
DA:20,1
DA:22,1
DA:24,0
DA:26,0
DA:27,0
DA:28,0
DA:29,0
DA:30,0
DA:33,0
DA:37,0
DA:41,0
DA:43,0
DA:46,0
DA:48,0
DA:49,0
DA:50,0
DA:51,0
DA:55,0
DA:61,60
DA:65,60
DA:67,60
DA:71,1
DA:75,1
DA:77,1
DA:81,61
DA:85,61
DA:89,61
DA:92,61
DA:94,61
DA:95,60
DA:113,1
DA:115,1
DA:118,1
DA:122,1
DA:129,1
DA:136,61
DA:140,1
DA:142,1
DA:144,1
DA:145,1
DA:147,60
DA:149,60
DA:151,60
DA:152,60
DA:156,61
DA:160,0
DA:162,0
DA:163,0
DA:166,61
DA:168,61
DA:170,60
DA:171,60
DA:175,60
DA:177,60
DA:179,0
DA:185,1
DA:188,1
DA:190,1
DA:202,1
DA:208,1
DA:209,1
DA:210,1
DA:224,60
DA:229,60
DA:234,60
DA:236,60
DA:239,60
DA:241,60
DA:245,60
DA:246,60
DA:247,60
DA:250,60
DA:254,60
DA:256,0
DA:260,60
DA:262,60
end_of_record
SF:/home/atcsol/git/FinalProject_UAH/uah_exp_freertos_project_2024_def/asw/components/uahexplorer/include/public/uahexplorer_iface_v1.h
FN:220,_ZN11UAHExplorer16EDROOM_CTX_Top_016EDROOMNewMessageEv
FNDA:60,_ZN11UAHExplorer16EDROOM_CTX_Top_016EDROOMNewMessageEv
DA:220,60
DA:221,60
end_of_record
TN:
SF:/home/atcsol/git/FinalProject_UAH/uah_exp_freertos_project_2024_def/asw/components/uahexplorer/src/UAHExplorerS.cpp
FN:13,_ZN11UAHExplorerC2Ejj15TEDROOMPriorityjPNS_13CEDROOMMemoryE
FNDA:1,_ZN11UAHExplorerC2Ejj15TEDROOMPriorityjPNS_13CEDROOMMemoryE
FN:49,_ZN11UAHExplorer12EDROOMConfigEv
FNDA:0,_ZN11UAHExplorer12EDROOMConfigEv
FN:60,_ZN11UAHExplorer11EDROOMStartEv
FNDA:1,_ZN11UAHExplorer11EDROOMStartEv
FN:85,_ZN11UAHExplorer15EDROOMBehaviourEv
FNDA:1,_ZN11UAHExplorer15EDROOMBehaviourEv
FN:114,_ZN11UAHExplorer13CEDROOMMemory9SetMemoryEjP14CEDROOMMessagePbjPN12CEDROOMQueue10CQueueNodeES3_
FNDA:1,_ZN11UAHExplorer13CEDROOMMemory9SetMemoryEjP14CEDROOMMessagePbjPN12CEDROOMQueue10CQueueNodeES3_
DA:13,1
DA:17,1
DA:24,1
DA:28,1
DA:32,2
DA:38,1
DA:49,0
DA:53,0
DA:60,1
DA:66,1
DA:70,1
DA:72,1
DA:85,1
DA:88,1
DA:89,1
DA:91,0
DA:114,1
DA:122,1
DA:123,1
DA:125,1
DA:128,1
end_of_record
SF:/home/atcsol/git/FinalProject_UAH/uah_exp_freertos_project_2024_def/service_libraries/edroomsl/edroomsl/include/edroomsl/edroomsl.h
end_of_record
SF:/home/atcsol/git/FinalProject_UAH/uah_exp_freertos_project_2024_def/asw/components/uahexplorer/include/public/uahexplorer_iface_v1.h
end_of_record
SF:/home/atcsol/git/FinalProject_UAH/uah_exp_freertos_project_2024_def/service_libraries/edroomsl/edroombp/include/public/edroombp.h
FN:192,_ZN12Pr_SemaphoreD2Ev
FNDA:0,_ZN12Pr_SemaphoreD2Ev
FN:261,_ZN15Pr_SemaphoreBinD2Ev
FNDA:0,_ZN15Pr_SemaphoreBinD2Ev
FN:337,_ZN15Pr_SemaphoreRecD2Ev
FNDA:0,_ZN15Pr_SemaphoreRecD2Ev
FN:533,_ZN7Pr_TaskD2Ev
FNDA:0,_ZN7Pr_TaskD2Ev
DA:192,0
DA:194,0
DA:195,0
DA:261,0
DA:264,0
DA:337,0
DA:533,0
DA:536,0
end_of_record
TN:
SF:/home/atcsol/git/FinalProject_UAH/uah_exp_freertos_project_2024_def/asw/components/cctm_channelctrl/include/public/cctm_channelctrl_iface_v1.h
end_of_record
SF:/home/atcsol/git/FinalProject_UAH/uah_exp_freertos_project_2024_def/asw/components/cctm_channelctrl/src/CCTM_ChannelCtrlS.cpp
FN:13,_ZN16CCTM_ChannelCtrlC2Ejj15TEDROOMPriorityjPNS_13CEDROOMMemoryE
FNDA:1,_ZN16CCTM_ChannelCtrlC2Ejj15TEDROOMPriorityjPNS_13CEDROOMMemoryE
FN:41,_ZN16CCTM_ChannelCtrl12EDROOMConfigEv
FNDA:0,_ZN16CCTM_ChannelCtrl12EDROOMConfigEv
FN:52,_ZN16CCTM_ChannelCtrl11EDROOMStartEv
FNDA:1,_ZN16CCTM_ChannelCtrl11EDROOMStartEv
FN:73,_ZN16CCTM_ChannelCtrl15EDROOMBehaviourEv
FNDA:1,_ZN16CCTM_ChannelCtrl15EDROOMBehaviourEv
FN:102,_ZN16CCTM_ChannelCtrl13CEDROOMMemory9SetMemoryEjP14CEDROOMMessagePbjPN12CEDROOMQueue10CQueueNodeES3_
FNDA:1,_ZN16CCTM_ChannelCtrl13CEDROOMMemory9SetMemoryEjP14CEDROOMMessagePbjPN12CEDROOMQueue10CQueueNodeES3_
DA:13,1
DA:17,1
DA:24,1
DA:30,1
DA:41,0
DA:45,0
DA:52,1
DA:58,1
DA:60,1
DA:73,1
DA:76,1
DA:77,1
DA:79,0
DA:102,1
DA:110,1
DA:111,1
DA:114,1
end_of_record
TN:
SF:/home/atcsol/git/FinalProject_UAH/uah_exp_freertos_project_2024_def/asw/components/cctm_channelctrl/include/public/cctm_channelctrl_iface_v1.h
FN:213,_ZN16CCTM_ChannelCtrl16EDROOM_CTX_Top_016EDROOMNewMessageEv
FNDA:66,_ZN16CCTM_ChannelCtrl16EDROOM_CTX_Top_016EDROOMNewMessageEv
DA:213,66
DA:214,66
end_of_record
SF:/home/atcsol/git/FinalProject_UAH/uah_exp_freertos_project_2024_def/asw/components/cctm_channelctrl/src/CCTM_ChannelCtrlB.cpp
FN:13,_ZN16CCTM_ChannelCtrl16EDROOM_CTX_Top_0C2ERS_
FNDA:1,_ZN16CCTM_ChannelCtrl16EDROOM_CTX_Top_0C2ERS_
FN:25,_ZN16CCTM_ChannelCtrl16EDROOM_CTX_Top_0C2ERS0_
FNDA:0,_ZN16CCTM_ChannelCtrl16EDROOM_CTX_Top_0C2ERS0_
FN:40,_ZN16CCTM_ChannelCtrl16EDROOM_CTX_Top_024EDROOMSearchContextTransER14TEDROOMTransId
FNDA:0,_ZN16CCTM_ChannelCtrl16EDROOM_CTX_Top_024EDROOMSearchContextTransER14TEDROOMTransId
FN:64,_ZN16CCTM_ChannelCtrl16EDROOM_CTX_Top_014FReplyTMQueuedEv
FNDA:65,_ZN16CCTM_ChannelCtrl16EDROOM_CTX_Top_014FReplyTMQueuedEv
FN:74,_ZN16CCTM_ChannelCtrl16EDROOM_CTX_Top_09FTxTMListEv
FNDA:65,_ZN16CCTM_ChannelCtrl16EDROOM_CTX_Top_09FTxTMListEv
FN:102,_ZN16CCTM_ChannelCtrl16EDROOM_SUB_Top_0C2ERS_
FNDA:1,_ZN16CCTM_ChannelCtrl16EDROOM_SUB_Top_0C2ERS_
FN:110,_ZN16CCTM_ChannelCtrl16EDROOM_SUB_Top_015EDROOMBehaviourEv
FNDA:1,_ZN16CCTM_ChannelCtrl16EDROOM_SUB_Top_015EDROOMBehaviourEv
FN:171,_ZN16CCTM_ChannelCtrl16EDROOM_SUB_Top_010EDROOMInitEv
FNDA:1,_ZN16CCTM_ChannelCtrl16EDROOM_SUB_Top_010EDROOMInitEv
FN:188,_ZN16CCTM_ChannelCtrl16EDROOM_SUB_Top_014EDROOMIArrivalEv
FNDA:1,_ZN16CCTM_ChannelCtrl16EDROOM_SUB_Top_014EDROOMIArrivalEv
FN:210,_ZN16CCTM_ChannelCtrl16EDROOM_SUB_Top_018EDROOMReadyArrivalEv
FNDA:66,_ZN16CCTM_ChannelCtrl16EDROOM_SUB_Top_018EDROOMReadyArrivalEv
DA:13,1
DA:15,1
DA:16,1
DA:17,1
DA:18,1
DA:19,1
DA:20,1
DA:21,1
DA:23,1
DA:25,0
DA:27,0
DA:28,0
DA:29,0
DA:30,0
DA:31,0
DA:32,0
DA:33,0
DA:36,0
DA:40,0
DA:44,0
DA:46,0
DA:49,0
DA:51,0
DA:52,0
DA:53,0
DA:54,0
DA:58,0
DA:64,65
DA:69,65
DA:70,65
DA:74,65
DA:78,65
DA:82,65
DA:84,65
DA:102,1
DA:103,1
DA:106,1
DA:110,1
DA:117,1
DA:124,66
DA:128,1
DA:130,1
DA:131,1
DA:133,65
DA:135,65
DA:137,65
DA:139,65
DA:140,65
DA:144,66
DA:148,0
DA:150,0
DA:151,0
DA:154,66
DA:156,66
DA:157,65
DA:161,65
DA:163,65
DA:165,0
DA:171,1
DA:174,1
DA:176,1
DA:188,1
DA:194,1
DA:195,1
DA:196,1
DA:210,66
DA:215,66
DA:220,66
DA:222,65
DA:225,65
DA:229,65
DA:230,65
DA:231,65
DA:234,65
DA:238,65
DA:240,0
DA:244,65
DA:246,65
end_of_record
TN:
SF:/home/atcsol/git/FinalProject_UAH/uah_exp_freertos_project_2024_def/llsw/emu_gss/src/emu_gss_pus_service20.cpp
FN:17,_ZN20EmuGSS_TCProgram20_1C2EjPKct
FNDA:0,_ZN20EmuGSS_TCProgram20_1C2EjPKct
FN:27,_ZN20EmuGSS_TCProgram20_114BuildTCAppDataER13tc_descriptor
FNDA:0,_ZN20EmuGSS_TCProgram20_114BuildTCAppDataER13tc_descriptor
FN:33,_ZN20EmuGSS_TCProgram20_3C2EjPKctt
FNDA:0,_ZN20EmuGSS_TCProgram20_3C2EjPKctt
FN:45,_ZN20EmuGSS_TCProgram20_314BuildTCAppDataER13tc_descriptor
FNDA:0,_ZN20EmuGSS_TCProgram20_314BuildTCAppDataER13tc_descriptor
FN:53,_Z19EmuGSS_ShowServ20TMPK13tm_descriptor
FNDA:0,_Z19EmuGSS_ShowServ20TMPK13tm_descriptor
FN:62,_ZN18GSSServ20TMHandlerC2EPKh
FNDA:0,_ZN18GSSServ20TMHandlerC2EPKh
FN:67,_ZN18GSSServ20TMHandler6ShowTMEv
FNDA:0,_ZN18GSSServ20TMHandler6ShowTMEv
FN:77,_ZN18GSSServ20TMHandler11ShowTM_20_2Ev
FNDA:0,_ZN18GSSServ20TMHandler11ShowTM_20_2Ev
DA:17,0
DA:19,0
DA:21,0
DA:23,0
DA:24,0
DA:25,0
DA:27,0
DA:29,0
DA:31,0
DA:33,0
DA:35,0
DA:37,0
DA:39,0
DA:40,0
DA:42,0
DA:43,0
DA:45,0
DA:47,0
DA:48,0
DA:50,0
DA:53,0
DA:55,0
DA:56,0
DA:58,0
DA:62,0
DA:63,0
DA:65,0
DA:67,0
DA:69,0
DA:70,0
DA:71,0
DA:72,0
DA:75,0
DA:77,0
DA:79,0
DA:80,0
DA:82,0
DA:85,0
end_of_record
TN:
SF:/home/atcsol/git/FinalProject_UAH/uah_exp_freertos_project_2024_def/llsw/emu_gss/src/emu_gss_tc_program.cpp
FN:19,_ZN16EmuGSS_TCProgram21GetCurrentTCProgramedEv
FNDA:3,_ZN16EmuGSS_TCProgram21GetCurrentTCProgramedEv
FN:25,_ZN16EmuGSS_TCProgramC2EjhhtPKc
FNDA:3,_ZN16EmuGSS_TCProgramC2EjhhtPKc
FN:36,_ZN16EmuGSS_TCProgram21SetCurrentTCProgramedEj
FNDA:63,_ZN16EmuGSS_TCProgram21SetCurrentTCProgramedEj
FN:48,_ZN16EmuGSS_TCProgram10NewProgramEPS_
FNDA:3,_ZN16EmuGSS_TCProgram10NewProgramEPS_
FN:82,_ZN16EmuGSS_TCProgram7BuildTCER13tc_descriptor
FNDA:3,_ZN16EmuGSS_TCProgram7BuildTCER13tc_descriptor
FN:99,_ZN16EmuGSS_TCProgram17BuildTCPackHeaderER13tc_descriptor
FNDA:3,_ZN16EmuGSS_TCProgram17BuildTCPackHeaderER13tc_descriptor
FN:122,_ZN16EmuGSS_TCProgram15BuildTCDFHeaderER13tc_descriptor
FNDA:3,_ZN16EmuGSS_TCProgram15BuildTCDFHeaderER13tc_descriptor
FN:132,_ZN16EmuGSS_TCProgram12SetNextUInt8ERh
FNDA:0,_ZN16EmuGSS_TCProgram12SetNextUInt8ERh
FN:137,_ZN16EmuGSS_TCProgram13SetNextUInt16ERt
FNDA:0,_ZN16EmuGSS_TCProgram13SetNextUInt16ERt
FN:142,_ZN16EmuGSS_TCProgram13SetNextUInt32ERj
FNDA:0,_ZN16EmuGSS_TCProgram13SetNextUInt32ERj
FN:146,_ZN16EmuGSS_TCProgram13SetNextUInt64ERm
FNDA:0,_ZN16EmuGSS_TCProgram13SetNextUInt64ERm
FN:151,_ZN16EmuGSS_TCProgram11SetNextInt8ERa
FNDA:0,_ZN16EmuGSS_TCProgram11SetNextInt8ERa
FN:155,_ZN16EmuGSS_TCProgram12SetNextInt16ERs
FNDA:0,_ZN16EmuGSS_TCProgram12SetNextInt16ERs
FN:160,_ZN16EmuGSS_TCProgram12SetNextInt32ERi
FNDA:0,_ZN16EmuGSS_TCProgram12SetNextInt32ERi
FN:164,_ZN16EmuGSS_TCProgram12SetNextInt64ERl
FNDA:0,_ZN16EmuGSS_TCProgram12SetNextInt64ERl
FN:168,_ZN16EmuGSS_TCProgram12SetNextFloatERf
FNDA:4,_ZN16EmuGSS_TCProgram12SetNextFloatERf
DA:19,3
DA:21,3
DA:25,3
DA:26,3
DA:28,3
DA:29,3
DA:30,3
DA:31,3
DA:32,3
DA:33,3
DA:34,3
DA:36,63
DA:37,63
DA:38,63
DA:39,62
DA:40,3
DA:41,3
DA:42,3
DA:45,63
DA:48,3
DA:49,3
DA:51,3
DA:52,1
DA:53,1
DA:55,2
DA:57,2
DA:58,2
DA:59,5
DA:60,3
DA:61,0
DA:62,0
DA:64,0
DA:66,0
DA:67,0
DA:69,3
DA:70,3
DA:71,3
DA:72,2
DA:73,2
DA:74,2
DA:80,3
DA:82,3
DA:84,3
DA:86,3
DA:87,3
DA:88,3
DA:89,3
DA:91,3
DA:92,3
DA:93,3
DA:95,3
DA:98,3
DA:99,3
DA:101,3
DA:102,3
DA:104,3
DA:107,3
DA:109,3
DA:111,3
DA:114,3
DA:117,3
DA:121,3
DA:122,3
DA:124,3
DA:125,3
DA:126,3
DA:127,3
DA:128,3
DA:130,3
DA:132,0
DA:133,0
DA:134,0
DA:135,0
DA:137,0
DA:138,0
DA:139,0
DA:140,0
DA:142,0
DA:143,0
DA:144,0
DA:145,0
DA:146,0
DA:147,0
DA:148,0
DA:149,0
DA:151,0
DA:152,0
DA:153,0
DA:154,0
DA:155,0
DA:156,0
DA:157,0
DA:158,0
DA:160,0
DA:161,0
DA:162,0
DA:163,0
DA:164,0
DA:165,0
DA:166,0
DA:167,0
DA:168,4
DA:170,4
DA:171,4
DA:172,4
DA:173,4
end_of_record
TN:
SF:/home/atcsol/git/FinalProject_UAH/uah_exp_freertos_project_2024_def/llsw/emu_gss/src/emu_gss_tm_handler.cpp
FN:17,_ZN12GSSTMHandler10GetPUSTypeEPK13tm_descriptor
FNDA:46,_ZN12GSSTMHandler10GetPUSTypeEPK13tm_descriptor
FN:27,_ZN12GSSTMHandler13GetPUSSubtypeEPK13tm_descriptor
FNDA:46,_ZN12GSSTMHandler13GetPUSSubtypeEPK13tm_descriptor
FN:38,_ZN12GSSTMHandlerC2EPKh
FNDA:46,_ZN12GSSTMHandlerC2EPKh
FN:53,_ZN12GSSTMHandler24GetNextUInt8AppDataFieldEv
FNDA:0,_ZN12GSSTMHandler24GetNextUInt8AppDataFieldEv
FN:61,_ZN12GSSTMHandler25GetNextUInt16AppDataFieldEv
FNDA:241,_ZN12GSSTMHandler25GetNextUInt16AppDataFieldEv
FN:69,_ZN12GSSTMHandler25GetNextUInt32AppDataFieldEv
FNDA:0,_ZN12GSSTMHandler25GetNextUInt32AppDataFieldEv
FN:78,_ZN12GSSTMHandler25GetNextUInt64AppDataFieldEv
FNDA:0,_ZN12GSSTMHandler25GetNextUInt64AppDataFieldEv
FN:87,_ZN12GSSTMHandler23GetNextInt8AppDataFieldEv
FNDA:0,_ZN12GSSTMHandler23GetNextInt8AppDataFieldEv
FN:95,_ZN12GSSTMHandler24GetNextInt16AppDataFieldEv
FNDA:0,_ZN12GSSTMHandler24GetNextInt16AppDataFieldEv
FN:104,_ZN12GSSTMHandler24GetNextInt32AppDataFieldEv
FNDA:0,_ZN12GSSTMHandler24GetNextInt32AppDataFieldEv
FN:113,_ZN12GSSTMHandler24GetNextInt64AppDataFieldEv
FNDA:0,_ZN12GSSTMHandler24GetNextInt64AppDataFieldEv
DA:17,46
DA:19,46
DA:20,46
DA:21,46
DA:23,46
DA:27,46
DA:30,46
DA:31,46
DA:32,46
DA:34,46
DA:38,46
DA:40,46
DA:41,46
DA:42,46
DA:44,46
DA:45,46
DA:46,46
DA:47,46
DA:49,46
DA:51,46
DA:53,0
DA:56,0
DA:57,0
DA:58,0
DA:61,241
DA:64,241
DA:65,241
DA:66,241
DA:69,0
DA:72,0
DA:73,0
DA:74,0
DA:78,0
DA:81,0
DA:82,0
DA:83,0
DA:87,0
DA:89,0
DA:90,0
DA:91,0
DA:95,0
DA:98,0
DA:99,0
DA:100,0
DA:104,0
DA:107,0
DA:108,0
DA:109,0
DA:113,0
DA:116,0
DA:117,0
DA:118,0
end_of_record
TN:
SF:/home/atcsol/git/FinalProject_UAH/uah_exp_freertos_project_2024_def/llsw/emu_gss/src/emu_gss_pus_service3.cpp
FN:19,_ZN19EmuGSS_TCProgram3_5C2EjPKct
FNDA:0,_ZN19EmuGSS_TCProgram3_5C2EjPKct
FN:29,_ZN19EmuGSS_TCProgram3_514BuildTCAppDataER13tc_descriptor
FNDA:0,_ZN19EmuGSS_TCProgram3_514BuildTCAppDataER13tc_descriptor
FN:36,_ZN19EmuGSS_TCProgram3_6C2EjPKct
FNDA:0,_ZN19EmuGSS_TCProgram3_6C2EjPKct
FN:46,_ZN19EmuGSS_TCProgram3_614BuildTCAppDataER13tc_descriptor
FNDA:0,_ZN19EmuGSS_TCProgram3_614BuildTCAppDataER13tc_descriptor
FN:52,_ZN20EmuGSS_TCProgram3_31C2EjPKcth
FNDA:0,_ZN20EmuGSS_TCProgram3_31C2EjPKcth
FN:64,_ZN20EmuGSS_TCProgram3_3114BuildTCAppDataER13tc_descriptor
FNDA:0,_ZN20EmuGSS_TCProgram3_3114BuildTCAppDataER13tc_descriptor
FN:73,_Z18EmuGSS_ShowServ3TMPK13tm_descriptor
FNDA:40,_Z18EmuGSS_ShowServ3TMPK13tm_descriptor
FN:82,_ZN17GSSServ3TMHandlerC2EPKh
FNDA:40,_ZN17GSSServ3TMHandlerC2EPKh
FN:87,_ZN17GSSServ3TMHandler6ShowTMEv
FNDA:40,_ZN17GSSServ3TMHandler6ShowTMEv
FN:99,_ZN17GSSServ3TMHandler11ShowTM_3_25Ev
FNDA:40,_ZN17GSSServ3TMHandler11ShowTM_3_25Ev
FN:143,_ZN17GSSServ3TMHandler16ShowTM_3_25_SID0Ev
FNDA:29,_ZN17GSSServ3TMHandler16ShowTM_3_25_SID0Ev
FN:163,_ZN17GSSServ3TMHandler17ShowTM_3_25_SID10Ev
FNDA:11,_ZN17GSSServ3TMHandler17ShowTM_3_25_SID10Ev
DA:19,0
DA:21,0
DA:23,0
DA:25,0
DA:26,0
DA:27,0
DA:29,0
DA:31,0
DA:33,0
DA:36,0
DA:38,0
DA:40,0
DA:42,0
DA:43,0
DA:44,0
DA:46,0
DA:48,0
DA:50,0
DA:52,0
DA:54,0
DA:56,0
DA:58,0
DA:59,0
DA:61,0
DA:62,0
DA:64,0
DA:66,0
DA:67,0
DA:70,0
DA:73,40
DA:75,40
DA:76,40
DA:78,40
DA:82,40
DA:83,40
DA:85,40
DA:87,40
DA:89,40
DA:90,40
DA:91,40
DA:92,40
DA:95,40
DA:99,40
DA:101,40
DA:103,40
DA:105,40
DA:107,29
DA:109,11
DA:111,11
DA:115,0
DA:117,0
DA:119,0
DA:121,0
DA:122,0
DA:123,0
DA:124,0
DA:125,0
DA:127,0
DA:130,0
DA:133,0
DA:137,40
DA:143,29
DA:145,174
DA:147,145
DA:148,145
DA:150,145
DA:151,29
DA:152,116
DA:153,29
DA:155,87
DA:157,29
DA:163,11
DA:165,55
DA:167,44
DA:168,44
DA:170,44
DA:171,11
DA:172,33
DA:173,11
DA:175,22
DA:177,11
end_of_record
TN:
SF:/home/atcsol/git/FinalProject_UAH/uah_exp_freertos_project_2024_def/llsw/emu_gss/include/emu_gss/emu_gss_tc_program.h
FN:46,_ZN16EmuGSS_TCProgram7GetTypeEv
FNDA:3,_ZN16EmuGSS_TCProgram7GetTypeEv
FN:47,_ZN16EmuGSS_TCProgram10GetSubtypeEv
FNDA:3,_ZN16EmuGSS_TCProgram10GetSubtypeEv
FN:48,_ZN16EmuGSS_TCProgram8GetBriefEv
FNDA:3,_ZN16EmuGSS_TCProgram8GetBriefEv
DA:46,3
DA:47,3
DA:48,3
end_of_record
SF:/home/atcsol/git/FinalProject_UAH/uah_exp_freertos_project_2024_def/llsw/emu_gss/src/emu_gss.cpp
FN:20,_Z13EmuGSS_ShowTMPK13tm_descriptor
FNDA:46,_Z13EmuGSS_ShowTMPK13tm_descriptor
FN:55,_Z17EmuGSS_PassSecondv
FNDA:60,_Z17EmuGSS_PassSecondv
FN:65,_Z24EmuGSS_SendProgrammedTCsv
FNDA:60,_Z24EmuGSS_SendProgrammedTCsv
DA:20,46
DA:23,46
DA:24,46
DA:26,46
DA:28,46
DA:30,6
DA:32,6
DA:34,6
DA:36,40
DA:37,40
DA:38,40
DA:40,0
DA:41,0
DA:42,0
DA:43,0
DA:44,0
DA:45,0
DA:46,0
DA:47,0
DA:48,0
DA:51,46
DA:53,46
DA:55,60
DA:59,60
DA:61,60
DA:63,60
DA:65,60
DA:67,60
DA:69,60
DA:70,63
DA:72,3
DA:73,3
DA:74,3
DA:76,3
DA:77,3
DA:82,3
DA:84,3
DA:86,3
DA:88,3
DA:90,3
DA:95,60
DA:97,3
DA:101,60
end_of_record
TN:
SF:/home/atcsol/git/FinalProject_UAH/uah_exp_freertos_project_2024_def/llsw/emu_gss/src/emu_gss_pus_service2.cpp
FN:17,_ZN19EmuGSS_TCProgram2_1C2EjPKch20DeviceCommandOnOff_t
FNDA:0,_ZN19EmuGSS_TCProgram2_1C2EjPKch20DeviceCommandOnOff_t
FN:30,_ZN19EmuGSS_TCProgram2_1C2Eh20DeviceCommandOnOff_t
FNDA:0,_ZN19EmuGSS_TCProgram2_1C2Eh20DeviceCommandOnOff_t
FN:42,_ZN19EmuGSS_TCProgram2_114BuildTCAppDataER13tc_descriptor
FNDA:0,_ZN19EmuGSS_TCProgram2_114BuildTCAppDataER13tc_descriptor
DA:17,0
DA:20,0
DA:22,0
DA:24,0
DA:26,0
DA:27,0
DA:30,0
DA:32,0
DA:34,0
DA:36,0
DA:40,0
DA:42,0
DA:44,0
DA:46,0
end_of_record
TN:
SF:/home/atcsol/git/FinalProject_UAH/uah_exp_freertos_project_2024_def/llsw/emu_gss/src/emu_gss_pus_service12.cpp
FN:19,_ZN20EmuGSS_TCProgram12_1C2EjPKct
FNDA:0,_ZN20EmuGSS_TCProgram12_1C2EjPKct
FN:28,_ZN20EmuGSS_TCProgram12_114BuildTCAppDataER13tc_descriptor
FNDA:0,_ZN20EmuGSS_TCProgram12_114BuildTCAppDataER13tc_descriptor
FN:34,_ZN20EmuGSS_TCProgram12_2C2EjPKct
FNDA:0,_ZN20EmuGSS_TCProgram12_2C2EjPKct
FN:43,_ZN20EmuGSS_TCProgram12_214BuildTCAppDataER13tc_descriptor
FNDA:0,_ZN20EmuGSS_TCProgram12_214BuildTCAppDataER13tc_descriptor
FN:49,_ZN20EmuGSS_TCProgram12_5C2EjPKctthtttt
FNDA:0,_ZN20EmuGSS_TCProgram12_5C2EjPKctthtttt
FN:65,_ZN20EmuGSS_TCProgram12_514BuildTCAppDataER13tc_descriptor
FNDA:0,_ZN20EmuGSS_TCProgram12_514BuildTCAppDataER13tc_descriptor
FN:77,_ZN20EmuGSS_TCProgram12_6C2EjPKct
FNDA:0,_ZN20EmuGSS_TCProgram12_6C2EjPKct
FN:86,_ZN20EmuGSS_TCProgram12_614BuildTCAppDataER13tc_descriptor
FNDA:0,_ZN20EmuGSS_TCProgram12_614BuildTCAppDataER13tc_descriptor
FN:93,_Z19EmuGSS_ShowServ12TMPK13tm_descriptor
FNDA:0,_Z19EmuGSS_ShowServ12TMPK13tm_descriptor
FN:100,_ZN18GSSServ12TMHandlerC2EPKh
FNDA:0,_ZN18GSSServ12TMHandlerC2EPKh
FN:105,_ZN18GSSServ12TMHandler6ShowTMEv
FNDA:0,_ZN18GSSServ12TMHandler6ShowTMEv
DA:19,0
DA:20,0
DA:22,0
DA:24,0
DA:25,0
DA:26,0
DA:28,0
DA:30,0
DA:32,0
DA:34,0
DA:35,0
DA:37,0
DA:39,0
DA:40,0
DA:41,0
DA:43,0
DA:45,0
DA:47,0
DA:49,0
DA:51,0
DA:53,0
DA:55,0
DA:56,0
DA:57,0
DA:58,0
DA:59,0
DA:60,0
DA:61,0
DA:62,0
DA:63,0
DA:65,0
DA:67,0
DA:68,0
DA:69,0
DA:70,0
DA:71,0
DA:72,0
DA:73,0
DA:75,0
DA:77,0
DA:78,0
DA:80,0
DA:82,0
DA:83,0
DA:84,0
DA:86,0
DA:88,0
DA:90,0
DA:93,0
DA:95,0
DA:96,0
DA:98,0
DA:100,0
DA:101,0
DA:103,0
DA:105,0
DA:107,0
end_of_record
TN:
SF:/home/atcsol/git/FinalProject_UAH/uah_exp_freertos_project_2024_def/llsw/emu_gss/src/emu_gss_pus_service1.cpp
FN:31,_Z18EmuGSS_ShowServ1TMPK13tm_descriptor
FNDA:6,_Z18EmuGSS_ShowServ1TMPK13tm_descriptor
FN:38,_ZN17GSSServ1TMHandlerC2EPKh
FNDA:6,_ZN17GSSServ1TMHandlerC2EPKh
FN:43,_ZN17GSSServ1TMHandler6ShowTMEv
FNDA:6,_ZN17GSSServ1TMHandler6ShowTMEv
FN:59,_ZN17GSSServ1TMHandler10ShowTM_1_2Ev
FNDA:0,_ZN17GSSServ1TMHandler10ShowTM_1_2Ev
FN:94,_ZN17GSSServ1TMHandler10ShowTM_1_8Ev
FNDA:0,_ZN17GSSServ1TMHandler10ShowTM_1_8Ev
DA:31,6
DA:33,6
DA:34,6
DA:36,6
DA:38,6
DA:39,6
DA:41,6
DA:43,6
DA:46,6
DA:48,6
DA:50,6
DA:51,0
DA:52,0
DA:53,0
DA:54,0
DA:55,0
DA:56,0
DA:58,6
DA:59,0
DA:61,0
DA:62,0
DA:63,0
DA:65,0
DA:66,0
DA:68,0
DA:70,0
DA:71,0
DA:73,0
DA:75,0
DA:76,0
DA:78,0
DA:80,0
DA:82,0
DA:84,0
DA:86,0
DA:88,0
DA:92,0
DA:94,0
DA:96,0
DA:97,0
DA:98,0
DA:100,0
DA:101,0
DA:103,0
DA:105,0
DA:106,0
DA:108,0
DA:110,0
DA:111,0
DA:113,0
DA:115,0
DA:117,0
DA:119,0
DA:121,0
DA:123,0
DA:125,0
DA:127,0
DA:129,0
DA:130,0
DA:132,0
DA:134,0
DA:135,0
DA:137,0
DA:139,0
DA:141,0
DA:143,0
DA:145,0
DA:147,0
DA:149,0
DA:151,0
DA:153,0
DA:155,0
DA:157,0
DA:160,0
end_of_record
TN:
SF:/home/atcsol/git/FinalProject_UAH/uah_exp_freertos_project_2024_def/llsw/emu_gss/src/emu_gss_pus_service19.cpp
FN:27,_ZN31EmuGSS_TCProgram19_1_Action_2_1C2EjPKcth20DeviceCommandOnOff_t
FNDA:0,_ZN31EmuGSS_TCProgram19_1_Action_2_1C2EjPKcth20DeviceCommandOnOff_t
FN:38,_ZN31EmuGSS_TCProgram19_1_Action_2_114BuildTCAppDataER13tc_descriptor
FNDA:0,_ZN31EmuGSS_TCProgram19_1_Action_2_114BuildTCAppDataER13tc_descriptor
FN:53,_ZN33EmuGSS_TCProgram19_1_Action_128_1C2EjPKct
FNDA:0,_ZN33EmuGSS_TCProgram19_1_Action_128_1C2EjPKct
FN:62,_ZN33EmuGSS_TCProgram19_1_Action_128_114BuildTCAppDataER13tc_descriptor
FNDA:0,_ZN33EmuGSS_TCProgram19_1_Action_128_114BuildTCAppDataER13tc_descriptor
FN:77,_ZN20EmuGSS_TCProgram19_2C2EjPKct
FNDA:0,_ZN20EmuGSS_TCProgram19_2C2EjPKct
FN:86,_ZN20EmuGSS_TCProgram19_214BuildTCAppDataER13tc_descriptor
FNDA:0,_ZN20EmuGSS_TCProgram19_214BuildTCAppDataER13tc_descriptor
FN:92,_ZN20EmuGSS_TCProgram19_4C2EjPKct
FNDA:0,_ZN20EmuGSS_TCProgram19_4C2EjPKct
FN:101,_ZN20EmuGSS_TCProgram19_414BuildTCAppDataER13tc_descriptor
FNDA:0,_ZN20EmuGSS_TCProgram19_414BuildTCAppDataER13tc_descriptor
FN:107,_ZN20EmuGSS_TCProgram19_5C2EjPKct
FNDA:0,_ZN20EmuGSS_TCProgram19_5C2EjPKct
FN:116,_ZN20EmuGSS_TCProgram19_514BuildTCAppDataER13tc_descriptor
FNDA:0,_ZN20EmuGSS_TCProgram19_514BuildTCAppDataER13tc_descriptor
FN:123,_Z19EmuGSS_ShowServ19TMPK13tm_descriptor
FNDA:0,_Z19EmuGSS_ShowServ19TMPK13tm_descriptor
FN:130,_ZN18GSSServ19TMHandlerC2EPKh
FNDA:0,_ZN18GSSServ19TMHandlerC2EPKh
FN:135,_ZN18GSSServ19TMHandler6ShowTMEv
FNDA:0,_ZN18GSSServ19TMHandler6ShowTMEv
DA:27,0
DA:29,0
DA:31,0
DA:32,0
DA:34,0
DA:35,0
DA:36,0
DA:38,0
DA:43,0
DA:45,0
DA:47,0
DA:48,0
DA:49,0
DA:51,0
DA:53,0
DA:54,0
DA:56,0
DA:57,0
DA:58,0
DA:60,0
DA:62,0
DA:67,0
DA:69,0
DA:71,0
DA:73,0
DA:74,0
DA:76,0
DA:77,0
DA:78,0
DA:80,0
DA:82,0
DA:83,0
DA:84,0
DA:86,0
DA:88,0
DA:90,0
DA:92,0
DA:93,0
DA:95,0
DA:97,0
DA:98,0
DA:99,0
DA:101,0
DA:103,0
DA:105,0
DA:107,0
DA:108,0
DA:110,0
DA:112,0
DA:113,0
DA:114,0
DA:116,0
DA:118,0
DA:120,0
DA:123,0
DA:125,0
DA:126,0
DA:128,0
DA:130,0
DA:131,0
DA:133,0
DA:135,0
DA:137,0
end_of_record
TN:
SF:/home/atcsol/git/FinalProject_UAH/uah_exp_freertos_project_2024_def/llsw/emu_gss/src/emu_gss_pus_service17.cpp
FN:13,_ZN20EmuGSS_TCProgram17_1C2EjPKc
FNDA:0,_ZN20EmuGSS_TCProgram17_1C2EjPKc
FN:20,_ZN20EmuGSS_TCProgram17_114BuildTCAppDataER13tc_descriptor
FNDA:0,_ZN20EmuGSS_TCProgram17_114BuildTCAppDataER13tc_descriptor
FN:27,_ZN20EmuGSS_TCProgram17_3C2EjPKct
FNDA:0,_ZN20EmuGSS_TCProgram17_3C2EjPKct
FN:35,_ZN20EmuGSS_TCProgram17_314BuildTCAppDataER13tc_descriptor
FNDA:0,_ZN20EmuGSS_TCProgram17_314BuildTCAppDataER13tc_descriptor
DA:13,0
DA:14,0
DA:15,0
DA:17,0
DA:18,0
DA:20,0
DA:23,0
DA:27,0
DA:28,0
DA:29,0
DA:31,0
DA:32,0
DA:33,0
DA:35,0
DA:38,0
end_of_record
TN:
SF:/home/atcsol/git/FinalProject_UAH/uah_exp_freertos_project_2024_def/llsw/emu_gss/src/emu_gss_pus_service5.cpp
FN:18,_ZN19EmuGSS_TCProgram5_5C2EjPKct
FNDA:0,_ZN19EmuGSS_TCProgram5_5C2EjPKct
FN:28,_ZN19EmuGSS_TCProgram5_514BuildTCAppDataER13tc_descriptor
FNDA:0,_ZN19EmuGSS_TCProgram5_514BuildTCAppDataER13tc_descriptor
FN:35,_ZN19EmuGSS_TCProgram5_6C2EjPKct
FNDA:0,_ZN19EmuGSS_TCProgram5_6C2EjPKct
FN:45,_ZN19EmuGSS_TCProgram5_614BuildTCAppDataER13tc_descriptor
FNDA:0,_ZN19EmuGSS_TCProgram5_614BuildTCAppDataER13tc_descriptor
FN:54,_Z18EmuGSS_ShowServ5TMPK13tm_descriptor
FNDA:0,_Z18EmuGSS_ShowServ5TMPK13tm_descriptor
FN:63,_ZN17GSSServ5TMHandlerC2EPKh
FNDA:0,_ZN17GSSServ5TMHandlerC2EPKh
FN:68,_ZN17GSSServ5TMHandler6ShowTMEv
FNDA:0,_ZN17GSSServ5TMHandler6ShowTMEv
FN:87,_ZN17GSSServ5TMHandler10ShowTM_5_1Ev
FNDA:0,_ZN17GSSServ5TMHandler10ShowTM_5_1Ev
FN:95,_ZN17GSSServ5TMHandler10ShowTM_5_2Ev
FNDA:0,_ZN17GSSServ5TMHandler10ShowTM_5_2Ev
FN:103,_ZN17GSSServ5TMHandler10ShowTM_5_3Ev
FNDA:0,_ZN17GSSServ5TMHandler10ShowTM_5_3Ev
FN:111,_ZN17GSSServ5TMHandler10ShowTM_5_4Ev
FNDA:0,_ZN17GSSServ5TMHandler10ShowTM_5_4Ev
DA:18,0
DA:20,0
DA:22,0
DA:24,0
DA:25,0
DA:26,0
DA:28,0
DA:30,0
DA:32,0
DA:35,0
DA:37,0
DA:39,0
DA:41,0
DA:42,0
DA:43,0
DA:45,0
DA:47,0
DA:49,0
DA:54,0
DA:56,0
DA:57,0
DA:59,0
DA:63,0
DA:64,0
DA:66,0
DA:68,0
DA:70,0
DA:71,0
DA:72,0
DA:73,0
DA:74,0
DA:75,0
DA:76,0
DA:77,0
DA:78,0
DA:79,0
DA:80,0
DA:81,0
DA:82,0
DA:85,0
DA:87,0
DA:89,0
DA:91,0
DA:93,0
DA:95,0
DA:97,0
DA:99,0
DA:101,0
DA:103,0
DA:105,0
DA:107,0
DA:109,0
DA:111,0
DA:113,0
DA:115,0
DA:117,0
DA:118,0
DA:119,0
DA:120,0
DA:121,0
DA:123,0
DA:124,0
DA:126,0
DA:128,0
DA:129,0
DA:130,0
DA:131,0
DA:133,0
DA:134,0
DA:136,0
DA:139,0
DA:140,0
end_of_record
TN:
SF:/home/atcsol/git/FinalProject_UAH/uah_exp_freertos_project_2024_def/llsw/emu_gss/src/emu_gss_pus_service128.cpp
FN:15,_ZN21EmuGSS_TCProgram128_1C2EjPKc
FNDA:1,_ZN21EmuGSS_TCProgram128_1C2EjPKc
FN:24,_ZN21EmuGSS_TCProgram128_1C2Ev
FNDA:0,_ZN21EmuGSS_TCProgram128_1C2Ev
FN:31,_ZN21EmuGSS_TCProgram128_114BuildTCAppDataER13tc_descriptor
FNDA:1,_ZN21EmuGSS_TCProgram128_114BuildTCAppDataER13tc_descriptor
DA:15,1
DA:16,1
DA:18,1
DA:20,1
DA:21,1
DA:24,0
DA:25,0
DA:29,0
DA:31,1
DA:34,1
end_of_record
TN:
SF:/home/atcsol/git/FinalProject_UAH/uah_exp_freertos_project_2024_def/llsw/emu_gss/src/emu_gss_pus_service129.cpp
FN:20,_ZN21EmuGSS_TCProgram129_1C2EjPKcff
FNDA:1,_ZN21EmuGSS_TCProgram129_1C2EjPKcff
FN:32,_ZN21EmuGSS_TCProgram129_114BuildTCAppDataER13tc_descriptor
FNDA:1,_ZN21EmuGSS_TCProgram129_114BuildTCAppDataER13tc_descriptor
FN:37,_ZN21EmuGSS_TCProgram129_2C2EjPKcff
FNDA:1,_ZN21EmuGSS_TCProgram129_2C2EjPKcff
FN:49,_ZN21EmuGSS_TCProgram129_214BuildTCAppDataER13tc_descriptor
FNDA:1,_ZN21EmuGSS_TCProgram129_214BuildTCAppDataER13tc_descriptor
DA:20,1
DA:22,1
DA:24,1
DA:26,1
DA:27,1
DA:29,1
DA:30,1
DA:32,1
DA:33,1
DA:34,1
DA:35,1
DA:37,1
DA:39,1
DA:41,1
DA:43,1
DA:44,1
DA:46,1
DA:47,1
DA:49,1
DA:51,1
DA:52,1
DA:54,1
end_of_record
TN:
SF:/home/atcsol/git/FinalProject_UAH/uah_exp_freertos_project_2024_def/llsw/emu_gss/src/emu_gss_pus_service9.cpp
FN:13,_ZN21EmuGSS_TCProgram9_129C2EjPKcj
FNDA:0,_ZN21EmuGSS_TCProgram9_129C2EjPKcj
FN:23,_ZN21EmuGSS_TCProgram9_12914BuildTCAppDataER13tc_descriptor
FNDA:0,_ZN21EmuGSS_TCProgram9_12914BuildTCAppDataER13tc_descriptor
DA:13,0
DA:15,0
DA:17,0
DA:19,0
DA:20,0
DA:21,0
DA:23,0
DA:25,0
DA:27,0
end_of_record
TN:
SF:/home/atcsol/git/FinalProject_UAH/uah_exp_freertos_project_2024_def/llsw/emu_hw_timecode_drv/src/emu_hw_timecode_drv.cpp
FN:17,_Z23EmuHwTimeCodePassSecondv
FNDA:60,_Z23EmuHwTimeCodePassSecondv
FN:29,_Z30EmuHwTimeCodeSetNextUniTimeY2Kj
FNDA:0,_Z30EmuHwTimeCodeSetNextUniTimeY2Kj
FN:34,_Z33EmuHwTimeCodeGetCurrentUniTimeY2Kv
FNDA:120,_Z33EmuHwTimeCodeGetCurrentUniTimeY2Kv
DA:17,60
DA:19,60
DA:21,60
DA:25,60
DA:27,60
DA:29,0
DA:31,0
DA:32,0
DA:34,120
DA:36,120
end_of_record
TN:
SF:/home/atcsol/git/FinalProject_UAH/uah_exp_freertos_project_2024_def/service_libraries/edroomsl/edroombp/include/public/edroombp.h
FN:192,_ZN12Pr_SemaphoreD2Ev
FNDA:0,_ZN12Pr_SemaphoreD2Ev
FN:310,_ZN15Pr_SemaphoreRec4WaitEv
FNDA:0,_ZN15Pr_SemaphoreRec4WaitEv
FN:319,_ZN15Pr_SemaphoreRec6SignalEv
FNDA:0,_ZN15Pr_SemaphoreRec6SignalEv
FN:337,_ZN15Pr_SemaphoreRecD2Ev
FNDA:0,_ZN15Pr_SemaphoreRecD2Ev
DA:192,0
DA:194,0
DA:195,0
DA:310,0
DA:319,0
DA:337,0
end_of_record
SF:/home/atcsol/git/FinalProject_UAH/uah_exp_freertos_project_2024_def/llsw/tmtc_dyn_mem/src/tmtc_pool.cpp
FN:36,_Z14init_tmtc_poolv
FNDA:1,_Z14init_tmtc_poolv
FN:48,_Z15tmtc_pool_allocv
FNDA:49,_Z15tmtc_pool_allocv
FN:75,_Z14tmtc_pool_freePh
FNDA:49,_Z14tmtc_pool_freePh
DA:36,1
DA:39,21
DA:40,20
DA:45,1
DA:48,49
DA:50,49
DA:53,49
DA:56,60
DA:58,60
DA:59,49
DA:60,49
DA:61,49
DA:66,49
DA:70,49
DA:75,49
DA:80,49
DA:81,49
DA:83,49
DA:85,49
DA:86,49
DA:87,49
DA:90,49
end_of_record
TN:
SF:/home/atcsol/git/FinalProject_UAH/uah_exp_freertos_project_2024_def/llsw/tc_queue_drv/src/tc_queue_drv.cpp
FN:26,_Z12TCQueue_InitPFvvES0_
FNDA:1,_Z12TCQueue_InitPFvvES0_
FN:35,_Z14TCQueue_IsFullv
FNDA:0,_Z14TCQueue_IsFullv
FN:51,_Z15TCQueue_IsEmptyv
FNDA:0,_Z15TCQueue_IsEmptyv
FN:67,_Z23TCQueue_GetTailTCMemoryv
FNDA:3,_Z23TCQueue_GetTailTCMemoryv
FN:87,_Z23TCQueue_TailTCCompletedt
FNDA:3,_Z23TCQueue_TailTCCompletedt
FN:104,_Z23TCQueue_GetHeadTCMemoryRt
FNDA:3,_Z23TCQueue_GetHeadTCMemoryRt
FN:123,_Z23TCQueue_HeadTCExtractedv
FNDA:3,_Z23TCQueue_HeadTCExtractedv
DA:26,1
DA:28,1
DA:29,1
DA:30,1
DA:31,1
DA:33,1
DA:35,0
DA:40,0
DA:42,0
DA:44,0
DA:48,0
DA:51,0
DA:56,0
DA:58,0
DA:60,0
DA:64,0
DA:67,3
DA:73,3
DA:75,3
DA:76,3
DA:78,3
DA:82,3
DA:84,3
DA:87,3
DA:90,3
DA:94,3
DA:96,3
DA:98,3
DA:102,3
DA:104,3
DA:110,3
DA:112,3
DA:114,3
DA:116,3
DA:120,3
DA:123,3
DA:127,3
DA:129,3
DA:130,3
DA:132,3
DA:136,3
end_of_record
TN:
SF:/home/atcsol/git/FinalProject_UAH/uah_exp_freertos_project_2024_def/asw/dataclasses/CDTMList/include/public/cdtmlist.h
FN:42,_ZN8CDTMList11GetTMNumberEv
FNDA:111,_ZN8CDTMList11GetTMNumberEv
FN:44,_ZN8CDTMList5GetTMEh
FNDA:46,_ZN8CDTMList5GetTMEh
FN:46,_ZN8CDTMList6GetpTMEh
FNDA:46,_ZN8CDTMList6GetpTMEh
DA:42,111
DA:44,46
DA:46,46
end_of_record
SF:/home/atcsol/git/FinalProject_UAH/uah_exp_freertos_project_2024_def/llsw/emu_sc_channel_drv/src/emu_sc_channel_drv.cpp
FN:15,_Z12LockFunctionv
FNDA:12,_Z12LockFunctionv
FN:18,_Z14UnlockFunctionv
FNDA:12,_Z14UnlockFunctionv
FN:22,_Z15SC_Channel_InitP19CEDROOMIRQInterface
FNDA:1,_Z15SC_Channel_InitP19CEDROOMIRQInterface
FN:28,_Z17SC_Channel_RxDatav
FNDA:0,_Z17SC_Channel_RxDatav
FN:33,_Z20SC_Channel_GetNextTCP11CDTCHandler
FNDA:3,_Z20SC_Channel_GetNextTCP11CDTCHandler
FN:53,_Z27SC_Channel_HandlePendingTCsv
FNDA:0,_Z27SC_Channel_HandlePendingTCsv
FN:61,_Z15SC_Channel_TxTMPK13tm_descriptor
FNDA:46,_Z15SC_Channel_TxTMPK13tm_descriptor
FN:67,_Z19SC_Channel_TxTMListP8CDTMList
FNDA:65,_Z19SC_Channel_TxTMListP8CDTMList
DA:15,12
DA:16,12
DA:17,12
DA:18,12
DA:19,12
DA:20,12
DA:22,1
DA:23,1
DA:25,1
DA:26,1
DA:28,0
DA:30,0
DA:33,3
DA:38,3
DA:40,3
DA:41,3
DA:43,55
DA:44,52
DA:48,3
DA:51,3
DA:53,0
DA:56,0
DA:58,0
DA:59,0
DA:61,46
DA:63,46
DA:65,46
DA:67,65
DA:68,111
DA:70,46
DA:72,46
DA:74,65
end_of_record
SF:/home/atcsol/git/FinalProject_UAH/uah_exp_freertos_project_2024_def/service_libraries/edroomsl/edroombp/include/public/edroombp.h
FN:192,_ZN12Pr_SemaphoreD2Ev
FNDA:0,_ZN12Pr_SemaphoreD2Ev
FN:310,_ZN15Pr_SemaphoreRec4WaitEv
FNDA:0,_ZN15Pr_SemaphoreRec4WaitEv
FN:319,_ZN15Pr_SemaphoreRec6SignalEv
FNDA:0,_ZN15Pr_SemaphoreRec6SignalEv
FN:337,_ZN15Pr_SemaphoreRecD2Ev
FNDA:0,_ZN15Pr_SemaphoreRecD2Ev
DA:192,0
DA:194,0
DA:195,0
DA:310,0
DA:319,0
DA:337,0
end_of_record
TN:
SF:/home/atcsol/git/FinalProject_UAH/uah_exp_freertos_project_2024_def/llsw/emu_uah_exp_kinematics/src/emu_uah_exp_kinematics.cpp
FN:12,_ZN18UAHExpEmuKinematic12EmuKinematicEfff
FNDA:600,_ZN18UAHExpEmuKinematic12EmuKinematicEfff
DA:12,600
DA:15,600
DA:22,600
DA:23,600
DA:24,600
DA:27,600
DA:30,600
DA:31,600
DA:32,600
DA:33,600
DA:36,600
DA:37,600
DA:38,549
DA:39,600
DA:40,600
DA:41,0
DA:42,600
DA:43,600
DA:44,0
DA:47,600
DA:48,600
end_of_record
TN:
SF:/home/atcsol/git/FinalProject_UAH/uah_exp_freertos_project_2024_def/asw/dataclasses/CDTCHandler/include/public/cdtchandler.h
FN:100,_ZN11CDTCHandler19SetExecCtrlAsPrioTCEv
FNDA:0,_ZN11CDTCHandler19SetExecCtrlAsPrioTCEv
FN:110,_ZN11CDTCHandler21SetExecCtrlAsRebootTCEv
FNDA:1,_ZN11CDTCHandler21SetExecCtrlAsRebootTCEv
FN:120,_ZN11CDTCHandler22SetExecCtrlAsHK_FDIRTCEv
FNDA:0,_ZN11CDTCHandler22SetExecCtrlAsHK_FDIRTCEv
FN:130,_ZN11CDTCHandler18SetExecCtrlAsBKGTCEv
FNDA:0,_ZN11CDTCHandler18SetExecCtrlAsBKGTCEv
FN:143,_ZN11CDTCHandler23SetExecCtrlAsGuidanceTCEv
FNDA:2,_ZN11CDTCHandler23SetExecCtrlAsGuidanceTCEv
FN:158,_ZN11CDTCHandler20SetAcceptationStatusE20TTCAcceptationStatus
FNDA:3,_ZN11CDTCHandler20SetAcceptationStatusE20TTCAcceptationStatus
FN:169,_ZN11CDTCHandler20GetAcceptationStatusEv
FNDA:0,_ZN11CDTCHandler20GetAcceptationStatusEv
DA:100,0
DA:101,0
DA:103,0
DA:110,1
DA:112,1
DA:113,1
DA:120,0
DA:122,0
DA:123,0
DA:130,0
DA:132,0
DA:133,0
DA:143,2
DA:147,2
DA:149,2
DA:158,3
DA:160,3
DA:162,3
DA:169,0
DA:171,0
end_of_record
SF:/home/atcsol/git/FinalProject_UAH/uah_exp_freertos_project_2024_def/service_libraries/icuasw_pus_services/src/icuasw_pus_service1.cpp
FN:39,_ZN11PUSService110IsCRCValidER11CDTCHandler
FNDA:3,_ZN11PUSService110IsCRCValidER11CDTCHandler
FN:51,_ZN11PUSService111IsAPIDValidER11CDTCHandler
FNDA:3,_ZN11PUSService111IsAPIDValidER11CDTCHandler
FN:60,_ZN11PUSService115IsSourceIDValidER11CDTCHandler
FNDA:3,_ZN11PUSService115IsSourceIDValidER11CDTCHandler
FN:74,_ZN11PUSService116TryTCAcceptationER11CDTCHandler
FNDA:3,_ZN11PUSService116TryTCAcceptationER11CDTCHandler
FN:254,_ZN11PUSService119CompleteTCRejectionER11CDTCHandler
FNDA:0,_ZN11PUSService119CompleteTCRejectionER11CDTCHandler
FN:260,_ZN11PUSService111BuildTM_1_1ER11CDTCHandlerR8CDTMList
FNDA:3,_ZN11PUSService111BuildTM_1_1ER11CDTCHandlerR8CDTMList
FN:271,_ZN11PUSService111BuildTM_1_2ER11CDTCHandlerR8CDTMList
FNDA:0,_ZN11PUSService111BuildTM_1_2ER11CDTCHandlerR8CDTMList
FN:326,_ZN11PUSService111BuildTM_1_7ER11CDTCHandlerR8CDTMList
FNDA:3,_ZN11PUSService111BuildTM_1_7ER11CDTCHandlerR8CDTMList
FN:337,_ZN11PUSService130BuildTM_1_8_TC_3_X_SIDNotValidER11CDTCHandlerR8CDTMListt
FNDA:0,_ZN11PUSService130BuildTM_1_8_TC_3_X_SIDNotValidER11CDTCHandlerR8CDTMListt
FN:351,_ZN11PUSService131BuildTM_1_8_TC_20_X_PIDNotValidER11CDTCHandlerR8CDTMListt
FNDA:0,_ZN11PUSService131BuildTM_1_8_TC_20_X_PIDNotValidER11CDTCHandlerR8CDTMListt
FN:365,_ZN11PUSService129BuildTM_1_8_TC_5_X_RIDUnknownER11CDTCHandlerR8CDTMListt
FNDA:0,_ZN11PUSService129BuildTM_1_8_TC_5_X_RIDUnknownER11CDTCHandlerR8CDTMListt
FN:378,_ZN11PUSService135BuildTM_1_8_TC_12_X_PMONIDUndefinedER11CDTCHandlerR8CDTMListt
FNDA:0,_ZN11PUSService135BuildTM_1_8_TC_12_X_PMONIDUndefinedER11CDTCHandlerR8CDTMListt
FN:391,_ZN11PUSService133BuildTM_1_8_TC_12_X_PMONIDDefinedER11CDTCHandlerR8CDTMListt
FNDA:0,_ZN11PUSService133BuildTM_1_8_TC_12_X_PMONIDDefinedER11CDTCHandlerR8CDTMListt
FN:405,_ZN11PUSService134BuildTM_1_8_TC_12_X_PMONIDNotValidER11CDTCHandlerR8CDTMListt
FNDA:0,_ZN11PUSService134BuildTM_1_8_TC_12_X_PMONIDNotValidER11CDTCHandlerR8CDTMListt
FN:419,_ZN11PUSService135BuildTM_1_8_TC_19_X_EvActionEnabledER11CDTCHandlerR8CDTMListt
FNDA:0,_ZN11PUSService135BuildTM_1_8_TC_19_X_EvActionEnabledER11CDTCHandlerR8CDTMListt
FN:433,_ZN11PUSService132BuildTM_1_8_TC_19_1_MaxEvActionsER11CDTCHandlerR8CDTMListt
FNDA:0,_ZN11PUSService132BuildTM_1_8_TC_19_1_MaxEvActionsER11CDTCHandlerR8CDTMListt
FN:447,_ZN11PUSService136BuildTM_1_8_TC_19_1_EvActionRejectedER11CDTCHandlerR8CDTMListt
FNDA:0,_ZN11PUSService136BuildTM_1_8_TC_19_1_EvActionRejectedER11CDTCHandlerR8CDTMListt
FN:461,_ZN11PUSService138BuildTM_1_8_TC_19_X_EvActionNotDefinedER11CDTCHandlerR8CDTMListt
FNDA:0,_ZN11PUSService138BuildTM_1_8_TC_19_X_EvActionNotDefinedER11CDTCHandlerR8CDTMListt
FN:475,_ZN11PUSService133BuildTM_1_8_TC_2_X_DeviceNotValidER11CDTCHandlerR8CDTMListh
FNDA:0,_ZN11PUSService133BuildTM_1_8_TC_2_X_DeviceNotValidER11CDTCHandlerR8CDTMListh
FN:490,_ZN11PUSService134BuildTM_1_8_TC_129_1_SpeedNotValidER11CDTCHandlerR8CDTMList
FNDA:0,_ZN11PUSService134BuildTM_1_8_TC_129_1_SpeedNotValidER11CDTCHandlerR8CDTMList
FN:502,_ZN11PUSService137BuildTM_1_8_TC_129_2_ConstantNotValidER11CDTCHandlerR8CDTMList
FNDA:0,_ZN11PUSService137BuildTM_1_8_TC_129_2_ConstantNotValidER11CDTCHandlerR8CDTMList
DA:39,3
DA:41,3
DA:42,3
DA:45,3
DA:47,3
DA:51,3
DA:54,3
DA:56,3
DA:60,3
DA:63,3
DA:66,3
DA:67,3
DA:68,6
DA:70,3
DA:74,3
DA:76,3
DA:78,3
DA:80,0
DA:82,3
DA:84,0
DA:86,3
DA:88,0
DA:92,3
DA:93,3
DA:95,3
DA:96,2
DA:97,2
DA:98,1
DA:100,1
DA:101,1
DA:102,1
DA:104,1
DA:105,1
DA:106,0
DA:107,0
DA:109,2
DA:110,0
DA:111,0
DA:112,0
DA:113,0
DA:114,0
DA:115,0
DA:116,0
DA:118,0
DA:119,0
DA:120,0
DA:121,0
DA:123,0
DA:124,0
DA:125,0
DA:126,0
DA:128,0
DA:129,0
DA:130,0
DA:131,0
DA:133,0
DA:134,0
DA:136,0
DA:137,0
DA:139,0
DA:140,0
DA:141,0
DA:142,0
DA:144,0
DA:145,0
DA:146,0
DA:148,0
DA:149,0
DA:150,0
DA:152,0
DA:153,0
DA:155,0
DA:156,0
DA:158,0
DA:159,0
DA:160,0
DA:161,0
DA:163,0
DA:164,0
DA:165,0
DA:167,0
DA:168,0
DA:169,0
DA:170,0
DA:172,0
DA:173,0
DA:174,0
DA:175,0
DA:177,0
DA:178,0
DA:179,0
DA:181,0
DA:182,0
DA:183,0
DA:185,0
DA:186,0
DA:188,0
DA:189,0
DA:191,0
DA:192,0
DA:193,0
DA:194,0
DA:196,0
DA:197,0
DA:198,0
DA:200,0
DA:201,0
DA:202,0
DA:204,0
DA:205,0
DA:207,0
DA:209,0
DA:210,0
DA:211,0
DA:212,0
DA:214,0
DA:215,0
DA:216,0
DA:217,0
DA:219,0
DA:220,0
DA:221,0
DA:223,0
DA:224,0
DA:226,0
DA:227,0
DA:229,0
DA:230,1
DA:231,1
DA:232,1
DA:234,1
DA:235,1
DA:237,0
DA:238,0
DA:240,1
DA:241,0
DA:243,0
DA:244,0
DA:250,3
DA:252,3
DA:254,0
DA:256,0
DA:258,0
DA:260,3
DA:262,3
DA:264,3
DA:265,3
DA:267,3
DA:269,3
DA:271,0
DA:273,0
DA:274,0
DA:276,0
DA:277,0
DA:279,0
DA:281,0
DA:283,0
DA:285,0
DA:286,0
DA:288,0
DA:290,0
DA:292,0
DA:294,0
DA:296,0
DA:298,0
DA:300,0
DA:302,0
DA:304,0
DA:306,0
DA:308,0
DA:310,0
DA:312,0
DA:314,0
DA:316,0
DA:318,0
DA:322,0
DA:324,0
DA:326,3
DA:328,3
DA:330,3
DA:331,3
DA:333,3
DA:335,3
DA:337,0
DA:340,0
DA:342,0
DA:343,0
DA:344,0
DA:345,0
DA:347,0
DA:349,0
DA:351,0
DA:354,0
DA:356,0
DA:357,0
DA:358,0
DA:359,0
DA:361,0
DA:363,0
DA:365,0
DA:368,0
DA:370,0
DA:371,0
DA:372,0
DA:373,0
DA:375,0
DA:376,0
DA:378,0
DA:380,0
DA:382,0
DA:383,0
DA:384,0
DA:385,0
DA:387,0
DA:389,0
DA:391,0
DA:394,0
DA:396,0
DA:397,0
DA:398,0
DA:399,0
DA:401,0
DA:403,0
DA:405,0
DA:408,0
DA:410,0
DA:411,0
DA:412,0
DA:413,0
DA:415,0
DA:417,0
DA:419,0
DA:422,0
DA:424,0
DA:425,0
DA:426,0
DA:427,0
DA:429,0
DA:431,0
DA:433,0
DA:436,0
DA:438,0
DA:439,0
DA:440,0
DA:441,0
DA:443,0
DA:445,0
DA:447,0
DA:450,0
DA:452,0
DA:453,0
DA:454,0
DA:455,0
DA:457,0
DA:459,0
DA:461,0
DA:464,0
DA:466,0
DA:467,0
DA:468,0
DA:469,0
DA:471,0
DA:473,0
DA:475,0
DA:478,0
DA:480,0
DA:481,0
DA:482,0
DA:483,0
DA:485,0
DA:487,0
DA:490,0
DA:493,0
DA:495,0
DA:496,0
DA:497,0
DA:498,0
DA:500,0
DA:502,0
DA:505,0
DA:507,0
DA:508,0
DA:509,0
DA:512,0
DA:514,0
end_of_record
TN:
SF:/home/atcsol/git/FinalProject_UAH/uah_exp_freertos_project_2024_def/service_libraries/icuasw_pus_services/src/icuasw_pus_service3.cpp
FN:25,_ZN11PUSService34InitEv
FNDA:1,_ZN11PUSService34InitEv
FN:30,_ZN11PUSService36ExecTCER11CDTCHandlerR8CDTMList
FNDA:0,_ZN11PUSService36ExecTCER11CDTCHandlerR8CDTMList
FN:47,_ZN11PUSService311GetSIDIndexEtRh
FNDA:0,_ZN11PUSService311GetSIDIndexEtRh
FN:58,_ZN11PUSService318ExecEnableConfigTCER11CDTCHandlerR8CDTMListb
FNDA:0,_ZN11PUSService318ExecEnableConfigTCER11CDTCHandlerR8CDTMListb
FN:74,_ZN11PUSService39Exec3_5TCER11CDTCHandlerR8CDTMList
FNDA:0,_ZN11PUSService39Exec3_5TCER11CDTCHandlerR8CDTMList
FN:79,_ZN11PUSService39Exec3_6TCER11CDTCHandlerR8CDTMList
FNDA:0,_ZN11PUSService39Exec3_6TCER11CDTCHandlerR8CDTMList
FN:84,_ZN11PUSService310Exec3_31TCER11CDTCHandlerR8CDTMList
FNDA:0,_ZN11PUSService310Exec3_31TCER11CDTCHandlerR8CDTMList
FN:103,_ZN11PUSService34DoHKER8CDTMList
FNDA:59,_ZN11PUSService34DoHKER8CDTMList
FN:128,_ZN11PUSService312BuildTM_3_25ER8CDTMListR10HKConfig_t
FNDA:40,_ZN11PUSService312BuildTM_3_25ER8CDTMListR10HKConfig_t
DA:25,1
DA:27,1
DA:28,1
DA:30,0
DA:32,0
DA:33,0
DA:34,0
DA:35,0
DA:36,0
DA:37,0
DA:38,0
DA:39,0
DA:40,0
DA:41,0
DA:42,0
DA:45,0
DA:47,0
DA:48,0
DA:49,0
DA:50,0
DA:51,0
DA:52,0
DA:55,0
DA:58,0
DA:62,0
DA:64,0
DA:65,0
DA:66,0
DA:67,0
DA:69,0
DA:72,0
DA:74,0
DA:76,0
DA:78,0
DA:79,0
DA:81,0
DA:83,0
DA:84,0
DA:87,0
DA:89,0
DA:90,0
DA:91,0
DA:93,0
DA:95,0
DA:98,0
DA:103,59
DA:107,59
DA:112,59
DA:114,531
DA:115,472
DA:116,118
DA:117,118
DA:119,40
DA:121,40
DA:126,59
DA:128,40
DA:130,40
DA:132,40
DA:134,229
DA:135,189
DA:136,189
DA:137,189
DA:141,40
DA:143,40
end_of_record
TN:
SF:/home/atcsol/git/FinalProject_UAH/uah_exp_freertos_project_2024_def/service_libraries/icuasw_pus_services/src/icuasw_pus_service2.cpp
FN:11,_ZN11PUSService26ExecTCER11CDTCHandlerR8CDTMList
FNDA:0,_ZN11PUSService26ExecTCER11CDTCHandlerR8CDTMList
FN:25,_ZN11PUSService29Exec2_1TCER11CDTCHandlerR8CDTMList
FNDA:0,_ZN11PUSService29Exec2_1TCER11CDTCHandlerR8CDTMList
DA:11,0
DA:13,0
DA:14,0
DA:16,0
DA:18,0
DA:19,0
DA:20,0
DA:23,0
DA:25,0
DA:28,0
DA:31,0
DA:33,0
DA:35,0
DA:37,0
DA:44,0
DA:46,0
DA:50,0
DA:54,0
DA:56,0
end_of_record
TN:
SF:/home/atcsol/git/FinalProject_UAH/uah_exp_freertos_project_2024_def/service_libraries/icuasw_pus_services/src/icuasw_pus_service9.cpp
FN:13,_ZN11PUSService96ExecTCER11CDTCHandlerR8CDTMList
FNDA:0,_ZN11PUSService96ExecTCER11CDTCHandlerR8CDTMList
FN:25,_ZN11PUSService920GetCurrentUniTimeY2KEv
FNDA:0,_ZN11PUSService920GetCurrentUniTimeY2KEv
DA:13,0
DA:15,0
DA:16,0
DA:17,0
DA:18,0
DA:19,0
DA:23,0
DA:25,0
DA:27,0
end_of_record
TN:
SF:/home/atcsol/git/FinalProject_UAH/uah_exp_freertos_project_2024_def/service_libraries/icuasw_pus_services/src/icuasw_pus_service12.cpp
FN:33,_ZN12PUSService126ExecTCER11CDTCHandlerR8CDTMList
FNDA:0,_ZN12PUSService126ExecTCER11CDTCHandlerR8CDTMList
FN:54,_ZN12PUSService1210Exec12_5TCER11CDTCHandlerR8CDTMList
FNDA:0,_ZN12PUSService1210Exec12_5TCER11CDTCHandlerR8CDTMList
FN:122,_ZN12PUSService1210Exec12_1TCER11CDTCHandlerR8CDTMList
FNDA:0,_ZN12PUSService1210Exec12_1TCER11CDTCHandlerR8CDTMList
FN:144,_ZN12PUSService1210Exec12_2TCER11CDTCHandlerR8CDTMList
FNDA:0,_ZN12PUSService1210Exec12_2TCER11CDTCHandlerR8CDTMList
FN:165,_ZN12PUSService1212DoMonitoringER11CDEventList
FNDA:59,_ZN12PUSService1212DoMonitoringER11CDEventList
FN:256,_ZN12PUSService1212TriggerEventER11CDEventListtttt
FNDA:0,_ZN12PUSService1212TriggerEventER11CDEventListtttt
FN:269,_ZN12PUSService1212UpdateStatusEt13CheckStatus_t
FNDA:0,_ZN12PUSService1212UpdateStatusEt13CheckStatus_t
DA:33,0
DA:35,0
DA:37,0
DA:38,0
DA:39,0
DA:40,0
DA:41,0
DA:42,0
DA:43,0
DA:44,0
DA:45,0
DA:47,0
DA:48,0
DA:52,0
DA:54,0
DA:64,0
DA:66,0
DA:68,0
DA:71,0
DA:73,0
DA:75,0
DA:76,0
DA:77,0
DA:78,0
DA:79,0
DA:81,0
DA:82,0
DA:83,0
DA:84,0
DA:87,0
DA:89,0
DA:92,0
DA:93,0
DA:95,0
DA:98,0
DA:102,0
DA:108,0
DA:115,0
DA:120,0
DA:122,0
DA:126,0
DA:128,0
DA:129,0
DA:130,0
DA:131,0
DA:133,0
DA:136,0
DA:142,0
DA:144,0
DA:148,0
DA:150,0
DA:151,0
DA:152,0
DA:154,0
DA:157,0
DA:163,0
DA:165,59
DA:169,59
DA:173,531
DA:175,472
DA:178,0
DA:179,0
DA:182,0
DA:183,0
DA:186,0
DA:189,0
DA:192,0
DA:194,0
DA:198,0
DA:199,0
DA:202,0
DA:203,0
DA:205,0
DA:208,0
DA:211,0
DA:212,0
DA:215,0
DA:216,0
DA:218,0
DA:221,0
DA:225,0
DA:229,0
DA:238,0
DA:239,0
DA:240,0
DA:243,0
DA:249,0
DA:254,59
DA:256,0
DA:260,0
DA:261,0
DA:262,0
DA:263,0
DA:264,0
DA:265,0
DA:267,0
DA:269,0
DA:272,0
DA:274,0
DA:275,0
DA:278,0
DA:281,0
DA:282,0
DA:285,0
end_of_record
SF:/home/atcsol/git/FinalProject_UAH/uah_exp_freertos_project_2024_def/asw/dataclasses/CDEventList/include/public/cdeventlist.h
FN:25,_ZN11CDEventList8AddEventEPK11EventInfo_t
FNDA:0,_ZN11CDEventList8AddEventEPK11EventInfo_t
DA:25,0
DA:27,0
DA:28,0
DA:31,0
DA:32,0
DA:34,0
DA:37,0
DA:38,0
DA:40,0
DA:42,0
end_of_record
TN:
SF:/home/atcsol/git/FinalProject_UAH/uah_exp_freertos_project_2024_def/service_libraries/icuasw_pus_services/src/icuasw_pus_service5.cpp
FN:14,_ZN11PUSService523GetRIDEnableConfigIndexEt
FNDA:0,_ZN11PUSService523GetRIDEnableConfigIndexEt
FN:40,_ZN11PUSService524GetRIDEnableConfigOffsetEt
FNDA:0,_ZN11PUSService524GetRIDEnableConfigOffsetEt
FN:49,_ZN11PUSService512IsIndexValidEh
FNDA:0,_ZN11PUSService512IsIndexValidEh
FN:56,_ZN11PUSService510GetRIDTypeEt
FNDA:0,_ZN11PUSService510GetRIDTypeEt
FN:92,_ZN11PUSService512IsRIDEnabledEt
FNDA:0,_ZN11PUSService512IsRIDEnabledEt
FN:112,_ZN11PUSService517BuildEventListTMsER11CDEventListR8CDTMList
FNDA:59,_ZN11PUSService517BuildEventListTMsER11CDEventListR8CDTMList
FN:141,_ZN11PUSService59Exec5_5TCER11CDTCHandlerR8CDTMList
FNDA:0,_ZN11PUSService59Exec5_5TCER11CDTCHandlerR8CDTMList
FN:164,_ZN11PUSService59Exec5_6TCER11CDTCHandlerR8CDTMList
FNDA:0,_ZN11PUSService59Exec5_6TCER11CDTCHandlerR8CDTMList
FN:187,_ZN11PUSService56ExecTCER11CDTCHandlerR8CDTMList
FNDA:0,_ZN11PUSService56ExecTCER11CDTCHandlerR8CDTMList
DA:14,0
DA:16,0
DA:18,0
DA:20,0
DA:21,0
DA:22,0
DA:23,0
DA:24,0
DA:25,0
DA:26,0
DA:27,0
DA:28,0
DA:29,0
DA:30,0
DA:31,0
DA:32,0
DA:33,0
DA:34,0
DA:37,0
DA:40,0
DA:44,0
DA:46,0
DA:49,0
DA:52,0
DA:56,0
DA:58,0
DA:59,0
DA:60,0
DA:62,0
DA:63,0
DA:64,0
DA:65,0
DA:67,0
DA:68,0
DA:69,0
DA:70,0
DA:72,0
DA:73,0
DA:74,0
DA:75,0
DA:77,0
DA:78,0
DA:79,0
DA:80,0
DA:83,0
DA:85,0
DA:86,0
DA:89,0
DA:92,0
DA:94,0
DA:98,0
DA:100,0
DA:102,0
DA:104,0
DA:105,0
DA:109,0
DA:112,59
DA:116,59
DA:117,59
DA:119,0
DA:121,0
DA:123,0
DA:125,0
DA:127,0
DA:128,0
DA:129,0
DA:130,0
DA:132,0
DA:138,59
DA:141,0
DA:147,0
DA:148,0
DA:149,0
DA:151,0
DA:153,0
DA:155,0
DA:159,0
DA:161,0
DA:164,0
DA:170,0
DA:172,0
DA:173,0
DA:175,0
DA:177,0
DA:179,0
DA:183,0
DA:185,0
DA:187,0
DA:189,0
DA:191,0
DA:193,0
DA:194,0
DA:195,0
DA:197,0
DA:198,0
DA:199,0
DA:201,0
DA:203,0
end_of_record
SF:/home/atcsol/git/FinalProject_UAH/uah_exp_freertos_project_2024_def/asw/dataclasses/CDEventList/include/public/cdeventlist.h
FN:60,_ZN11CDEventList12GetEventInfoEh
FNDA:0,_ZN11CDEventList12GetEventInfoEh
FN:76,_ZN11CDEventList17GetNumberOfEventsEv
FNDA:0,_ZN11CDEventList17GetNumberOfEventsEv
DA:60,0
DA:62,0
DA:63,0
DA:64,0
DA:67,0
DA:76,0
DA:77,0
end_of_record
TN:
SF:/home/atcsol/git/FinalProject_UAH/uah_exp_freertos_project_2024_def/service_libraries/icuasw_pus_services/src/icuasw_pus_services.cpp
FN:16,_ZN14SystemDataPool4InitEv
FNDA:1,_ZN14SystemDataPool4InitEv
FN:21,_ZN14SystemDataPool12SetFromInt16Eis
FNDA:2400,_ZN14SystemDataPool12SetFromInt16Eis
FN:31,_ZN17PUSPrioTCExecutor6ExecTCER11CDTCHandlerR8CDTMListR11CDEventList
FNDA:1,_ZN17PUSPrioTCExecutor6ExecTCER11CDTCHandlerR8CDTMListR11CDEventList
FN:55,_ZN22PUS_HK_FDIR_TCExecutor6ExecTCER11CDTCHandlerR8CDTMListR11CDEventList
FNDA:0,_ZN22PUS_HK_FDIR_TCExecutor6ExecTCER11CDTCHandlerR8CDTMListR11CDEventList
FN:80,_ZN17PUS_BKGTCExecutor6ExecTCER11CDTCHandlerR8CDTMListR11CDEventList
FNDA:0,_ZN17PUS_BKGTCExecutor6ExecTCER11CDTCHandlerR8CDTMListR11CDEventList
FN:95,_ZN22PUS_GuidanceTCExecutor6ExecTCER11CDTCHandlerR8CDTMListR11CDEventList
FNDA:2,_ZN22PUS_GuidanceTCExecutor6ExecTCER11CDTCHandlerR8CDTMListR11CDEventList
DA:16,1
DA:17,65
DA:18,64
DA:19,1
DA:21,2400
DA:23,2400
DA:25,2400
DA:26,2400
DA:29,2400
DA:31,1
DA:34,1
DA:35,1
DA:37,0
DA:38,0
DA:39,0
DA:40,0
DA:41,0
DA:42,0
DA:43,0
DA:44,0
DA:45,0
DA:46,1
DA:47,1
DA:48,1
DA:49,0
DA:50,0
DA:52,1
DA:53,1
DA:55,0
DA:58,0
DA:60,0
DA:62,0
DA:63,0
DA:64,0
DA:65,0
DA:66,0
DA:67,0
DA:68,0
DA:69,0
DA:70,0
DA:71,0
DA:72,0
DA:73,0
DA:74,0
DA:75,0
DA:77,0
DA:78,0
DA:80,0
DA:82,0
DA:84,0
DA:85,0
DA:86,0
DA:87,0
DA:88,0
DA:89,0
DA:91,0
DA:93,0
DA:95,2
DA:97,2
DA:99,2
DA:100,2
DA:101,2
DA:102,2
DA:103,0
DA:104,0
DA:106,2
DA:108,2
end_of_record
TN:
SF:/home/atcsol/git/FinalProject_UAH/uah_exp_freertos_project_2024_def/service_libraries/icuasw_pus_services/src/icuasw_pus_service20.cpp
FN:12,_ZN12PUSService206ExecTCER11CDTCHandlerR8CDTMList
FNDA:0,_ZN12PUSService206ExecTCER11CDTCHandlerR8CDTMList
FN:28,_ZN12PUSService2010Exec20_3TCER11CDTCHandlerR8CDTMList
FNDA:0,_ZN12PUSService2010Exec20_3TCER11CDTCHandlerR8CDTMList
FN:43,_ZN12PUSService2010Exec20_1TCER11CDTCHandlerR8CDTMList
FNDA:0,_ZN12PUSService2010Exec20_1TCER11CDTCHandlerR8CDTMList
DA:12,0
DA:14,0
DA:15,0
DA:16,0
DA:17,0
DA:18,0
DA:19,0
DA:20,0
DA:22,0
DA:26,0
DA:28,0
DA:30,0
DA:32,0
DA:34,0
DA:35,0
DA:37,0
DA:39,0
DA:42,0
DA:43,0
DA:45,0
DA:49,0
DA:50,0
DA:52,0
DA:53,0
DA:54,0
DA:56,0
DA:57,0
DA:61,0
DA:64,0
end_of_record
TN:
SF:/home/atcsol/git/FinalProject_UAH/uah_exp_freertos_project_2024_def/asw/dataclasses/CDTCHandler/include/public/cdtchandler.h
FN:193,_ZN11CDTCHandler10IsAcceptedEv
FNDA:3,_ZN11CDTCHandler10IsAcceptedEv
DA:193,3
DA:194,3
end_of_record
SF:/home/atcsol/git/FinalProject_UAH/uah_exp_freertos_project_2024_def/service_libraries/icuasw_pus_services/src/icuasw_pus_service19.cpp
FN:30,_ZN12PUSService1917GetEvActionConfigEtRhRb
FNDA:0,_ZN12PUSService1917GetEvActionConfigEtRhRb
FN:43,_ZN12PUSService1920GetFreeEvActionIndexERh
FNDA:0,_ZN12PUSService1920GetFreeEvActionIndexERh
FN:54,_ZN12PUSService1910Exec19_1TCER11CDTCHandlerR8CDTMList
FNDA:0,_ZN12PUSService1910Exec19_1TCER11CDTCHandlerR8CDTMList
FN:136,_ZN12PUSService1910Exec19_2TCER11CDTCHandlerR8CDTMList
FNDA:0,_ZN12PUSService1910Exec19_2TCER11CDTCHandlerR8CDTMList
FN:178,_ZN12PUSService1910Exec19_4TCER11CDTCHandlerR8CDTMList
FNDA:0,_ZN12PUSService1910Exec19_4TCER11CDTCHandlerR8CDTMList
FN:211,_ZN12PUSService1910Exec19_5TCER11CDTCHandlerR8CDTMList
FNDA:0,_ZN12PUSService1910Exec19_5TCER11CDTCHandlerR8CDTMList
FN:243,_ZN12PUSService196ExecTCER11CDTCHandlerR8CDTMList
FNDA:0,_ZN12PUSService196ExecTCER11CDTCHandlerR8CDTMList
FN:266,_ZN12PUSService1918ManageEventActionsER11CDEventList
FNDA:59,_ZN12PUSService1918ManageEventActionsER11CDEventList
FN:294,_ZN12PUSService1914InsertEvActionEthPht
FNDA:0,_ZN12PUSService1914InsertEvActionEthPht
FN:348,_ZN12PUSService1918NewPendingEvActionEth
FNDA:0,_ZN12PUSService1918NewPendingEvActionEth
FN:362,_ZN12PUSService1920IsEvActionQueueEmptyEv
FNDA:59,_ZN12PUSService1920IsEvActionQueueEmptyEv
FN:372,_ZN12PUSService1924ExtractEvActionFromQueueER10CDEvAction
FNDA:0,_ZN12PUSService1924ExtractEvActionFromQueueER10CDEvAction
FN:395,_ZN12PUSService1920GetEvActionTCHandlerER10CDEvActionR11CDTCHandler
FNDA:0,_ZN12PUSService1920GetEvActionTCHandlerER10CDEvActionR11CDTCHandler
FN:401,_ZN12PUSService1924TriggerEvActionExecutionEv
FNDA:0,_ZN12PUSService1924TriggerEvActionExecutionEv
FN:407,_ZN12PUSService1922HandlePendingEvActionsEv
FNDA:0,_ZN12PUSService1922HandlePendingEvActionsEv
DA:30,0
DA:32,0
DA:33,0
DA:34,0
DA:35,0
DA:36,0
DA:37,0
DA:40,0
DA:43,0
DA:44,0
DA:45,0
DA:46,0
DA:47,0
DA:48,0
DA:51,0
DA:54,0
DA:57,0
DA:58,0
DA:63,0
DA:65,0
DA:67,0
DA:69,0
DA:73,0
DA:74,0
DA:75,0
DA:76,0
DA:77,0
DA:80,0
DA:82,0
DA:87,0
DA:89,0
DA:97,0
DA:99,0
DA:100,0
DA:103,0
DA:105,0
DA:106,0
DA:107,0
DA:109,0
DA:113,0
DA:115,0
DA:117,0
DA:122,0
DA:123,0
DA:125,0
DA:134,0
DA:136,0
DA:140,0
DA:145,0
DA:147,0
DA:149,0
DA:151,0
DA:155,0
DA:157,0
DA:158,0
DA:163,0
DA:164,0
DA:165,0
DA:171,0
DA:176,0
DA:178,0
DA:182,0
DA:187,0
DA:189,0
DA:191,0
DA:193,0
DA:197,0
DA:199,0
DA:200,0
DA:204,0
DA:209,0
DA:211,0
DA:215,0
DA:220,0
DA:222,0
DA:224,0
DA:226,0
DA:230,0
DA:232,0
DA:233,0
DA:237,0
DA:241,0
DA:243,0
DA:245,0
DA:247,0
DA:248,0
DA:249,0
DA:250,0
DA:251,0
DA:252,0
DA:253,0
DA:254,0
DA:255,0
DA:256,0
DA:257,0
DA:258,0
DA:260,0
DA:261,0
DA:264,0
DA:266,59
DA:268,59
DA:269,59
DA:271,0
DA:273,0
DA:277,0
DA:279,0
DA:280,0
DA:282,0
DA:291,59
DA:292,59
DA:294,0
DA:298,0
DA:299,0
DA:302,0
DA:304,0
DA:306,0
DA:307,0
DA:308,0
DA:309,0
DA:310,0
DA:311,0
DA:313,0
DA:314,0
DA:315,0
DA:317,0
DA:318,0
DA:319,0
DA:320,0
DA:321,0
DA:326,0
DA:328,0
DA:330,0
DA:331,0
DA:333,0
DA:335,0
DA:337,0
DA:340,0
DA:342,0
DA:345,0
DA:348,0
DA:350,0
DA:352,0
DA:353,0
DA:354,0
DA:357,0
DA:362,59
DA:364,59
DA:365,59
DA:366,295
DA:367,236
DA:368,59
DA:369,59
DA:372,0
DA:374,0
DA:375,0
DA:378,0
DA:380,0
DA:381,0
DA:382,0
DA:383,0
DA:384,0
DA:385,0
DA:386,0
DA:388,0
DA:389,0
DA:391,0
DA:395,0
DA:398,0
DA:399,0
DA:401,0
DA:403,0
DA:404,0
DA:407,0
DA:409,0
DA:410,0
DA:411,0
end_of_record
SF:/home/atcsol/git/FinalProject_UAH/uah_exp_freertos_project_2024_def/service_libraries/edroomsl/edroombp/include/public/edroombp.h
FN:192,_ZN12Pr_SemaphoreD2Ev
FNDA:7,_ZN12Pr_SemaphoreD2Ev
FN:310,_ZN15Pr_SemaphoreRec4WaitEv
FNDA:7797,_ZN15Pr_SemaphoreRec4WaitEv
FN:319,_ZN15Pr_SemaphoreRec6SignalEv
FNDA:7797,_ZN15Pr_SemaphoreRec6SignalEv
FN:337,_ZN15Pr_SemaphoreRecD2Ev
FNDA:5,_ZN15Pr_SemaphoreRecD2Ev
DA:192,7
DA:194,7
DA:195,7
DA:310,7797
DA:319,7797
DA:337,5
end_of_record
SF:/home/atcsol/git/FinalProject_UAH/uah_exp_freertos_project_2024_def/asw/dataclasses/CDEventList/include/public/cdeventlist.h
FN:60,_ZN11CDEventList12GetEventInfoEh
FNDA:0,_ZN11CDEventList12GetEventInfoEh
FN:70,_ZN11CDEventList14ClearEventListEv
FNDA:122,_ZN11CDEventList14ClearEventListEv
FN:76,_ZN11CDEventList17GetNumberOfEventsEv
FNDA:118,_ZN11CDEventList17GetNumberOfEventsEv
DA:60,0
DA:62,0
DA:63,0
DA:64,0
DA:67,0
DA:70,122
DA:71,122
DA:72,122
DA:74,122
DA:76,118
DA:77,118
end_of_record
SF:/home/atcsol/git/FinalProject_UAH/uah_exp_freertos_project_2024_def/asw/dataclasses/CDEvAction/include/public/cdevaction.h
FN:24,_ZN10CDEvAction17SetActionTCPacketER11CDTCHandler
FNDA:0,_ZN10CDEvAction17SetActionTCPacketER11CDTCHandler
FN:29,_ZN10CDEvActionC2Ev
FNDA:44,_ZN10CDEvActionC2Ev
DA:24,0
DA:26,0
DA:27,0
DA:29,44
DA:30,44
DA:31,44
DA:33,44
end_of_record
SF:/home/atcsol/git/FinalProject_UAH/uah_exp_freertos_project_2024_def/service_libraries/icuasw_pus_services/include/icuasw_pus_services/icuasw_pus_service19.h
end_of_record
TN:
SF:/home/atcsol/git/FinalProject_UAH/uah_exp_freertos_project_2024_def/service_libraries/icuasw_pus_services/src/icuasw_pus_service128.cpp
FN:11,_ZN13PUSService1286ExecTCER11CDTCHandlerR8CDTMList
FNDA:1,_ZN13PUSService1286ExecTCER11CDTCHandlerR8CDTMList
FN:26,_ZN13PUSService12811Exec128_1TCER11CDTCHandlerR8CDTMList
FNDA:1,_ZN13PUSService12811Exec128_1TCER11CDTCHandlerR8CDTMList
FN:34,_ZN13PUSService1289MngRebootEv
FNDA:1,_ZN13PUSService1289MngRebootEv
DA:11,1
DA:13,1
DA:14,1
DA:16,1
DA:18,1
DA:19,0
DA:20,0
DA:24,1
DA:26,1
DA:29,1
DA:32,1
DA:34,1
DA:36,1
end_of_record
TN:
SF:/home/atcsol/git/FinalProject_UAH/uah_exp_freertos_project_2024_def/service_libraries/icuasw_pus_services/src/icuasw_pus_service17.cpp
FN:10,_ZN12PUSService176ExecTCER11CDTCHandlerR8CDTMList
FNDA:0,_ZN12PUSService176ExecTCER11CDTCHandlerR8CDTMList
FN:26,_ZN12PUSService1712BuildTM_17_2ER8CDTMList
FNDA:0,_ZN12PUSService1712BuildTM_17_2ER8CDTMList
DA:10,0
DA:12,0
DA:13,0
DA:15,0
DA:17,0
DA:18,0
DA:19,0
DA:20,0
DA:24,0
DA:26,0
DA:28,0
DA:30,0
DA:32,0
end_of_record
TN:
SF:/home/atcsol/git/FinalProject_UAH/uah_exp_freertos_project_2024_def/service_libraries/icuasw_pus_services/src/icuasw_pus_service129.cpp
FN:32,_ZN13PUSService1296ExecTCER11CDTCHandlerR8CDTMList
FNDA:2,_ZN13PUSService1296ExecTCER11CDTCHandlerR8CDTMList
FN:49,_ZN13PUSService12911Exec129_1TCER11CDTCHandlerR8CDTMList
FNDA:1,_ZN13PUSService12911Exec129_1TCER11CDTCHandlerR8CDTMList
FN:72,_ZN13PUSService12911Exec129_2TCER11CDTCHandlerR8CDTMList
FNDA:1,_ZN13PUSService12911Exec129_2TCER11CDTCHandlerR8CDTMList
FN:95,_ZN13PUSService12913LimitActuatorEff
FNDA:1200,_ZN13PUSService12913LimitActuatorEff
FN:106,_ZN13PUSService12915GuidanceControlEv
FNDA:600,_ZN13PUSService12915GuidanceControlEv
DA:32,2
DA:34,2
DA:37,1
DA:38,1
DA:39,1
DA:40,1
DA:41,1
DA:42,1
DA:43,0
DA:44,0
DA:47,2
DA:49,1
DA:56,1
DA:57,1
DA:59,1
DA:60,1
DA:61,1
DA:63,1
DA:67,0
DA:70,1
DA:72,1
DA:77,1
DA:78,1
DA:80,1
DA:81,1
DA:82,1
DA:84,1
DA:87,0
DA:90,1
DA:95,1200
DA:97,1200
DA:98,1200
DA:99,17
DA:100,1183
DA:101,57
DA:103,1200
DA:106,600
DA:112,600
DA:115,600
DA:116,600
DA:120,600
DA:121,600
DA:135,600
DA:136,600
DA:137,600
DA:138,600
DA:141,600
DA:142,600
DA:143,600
DA:144,600
DA:146,600
end_of_record
SF:/home/atcsol/git/FinalProject_UAH/uah_exp_freertos_project_2024_def/llsw/emu_uah_exp_kinematics/include/public/emu_uah_exp_kinematics.h
FN:34,_ZN18UAHExpEmuKinematicC2Ev
FNDA:1,_ZN18UAHExpEmuKinematicC2Ev
DA:34,1
DA:35,1
DA:36,1
DA:37,1
DA:38,1
DA:39,1
end_of_record
TN:
SF:/home/atcsol/git/FinalProject_UAH/uah_exp_freertos_project_2024_def/service_libraries/edroomsl/edroombp/src/freertossapi/edroombp.cpp
FN:35,_ZN11lista_tareaC2Ev
FNDA:1,_ZN11lista_tareaC2Ev
FN:37,_ZN11lista_tarea3addEP19tskTaskControlBlockP7Pr_Task
FNDA:12,_ZN11lista_tarea3addEP19tskTaskControlBlockP7Pr_Task
FN:48,_ZN11lista_tarea6removeEP19tskTaskControlBlock
FNDA:0,_ZN11lista_tarea6removeEP19tskTaskControlBlock
FN:73,_ZN11lista_tarea4findEP19tskTaskControlBlock
FNDA:731,_ZN11lista_tarea4findEP19tskTaskControlBlock
FN:100,_ZN9Pr_KernelC2Ev
FNDA:1,_ZN9Pr_KernelC2Ev
FN:105,_ZN9Pr_Kernel5StartEv
FNDA:1,_ZN9Pr_Kernel5StartEv
FN:112,_ZN9Pr_Kernel5PanicEPKc
FNDA:0,_ZN9Pr_Kernel5PanicEPKc
FN:126,_ZN7Pr_TaskC2EPFvvEPKc15TEDROOMPriorityj
FNDA:0,_ZN7Pr_TaskC2EPFvvEPKc15TEDROOMPriorityj
FN:154,_ZN7Pr_TaskC2EPFvvE15TEDROOMPriorityj
FNDA:12,_ZN7Pr_TaskC2EPFvvE15TEDROOMPriorityj
FN:182,_ZN7Pr_Task11SetPriorityE15TEDROOMPriority
FNDA:0,_ZN7Pr_Task11SetPriorityE15TEDROOMPriority
FN:193,_ZN7Pr_Task13SetMaxPrioTmpE15TEDROOMPriority
FNDA:721,_ZN7Pr_Task13SetMaxPrioTmpE15TEDROOMPriority
FN:206,_ZN7Pr_Task13SetMaxPrioMsgE15TEDROOMPriority
FNDA:0,_ZN7Pr_Task13SetMaxPrioMsgE15TEDROOMPriority
FN:219,_ZN7Pr_Task14RestorePrioMsgEv
FNDA:720,_ZN7Pr_Task14RestorePrioMsgEv
FN:228,_ZN7Pr_Task11GetTaskPrioEv
FNDA:0,_ZN7Pr_Task11GetTaskPrioEv
FN:233,_ZN7Pr_Task14ChangePriorityE15TEDROOMPriority
FNDA:1441,_ZN7Pr_Task14ChangePriorityE15TEDROOMPriority
FN:249,_ZN7Pr_TimeC2Ev
FNDA:2869,_ZN7Pr_TimeC2Ev
FN:255,_ZN7Pr_TimeC2ERKS_
FNDA:2185,_ZN7Pr_TimeC2ERKS_
FN:261,_ZN7Pr_TimeC2Ejj
FNDA:723,_ZN7Pr_TimeC2Ejj
FN:267,_ZN7Pr_TimeC2E8timespec
FNDA:0,_ZN7Pr_TimeC2E8timespec
FN:281,_ZN7Pr_Time7GetTimeEv
FNDA:3366,_ZN7Pr_Time7GetTimeEv
FN:291,_ZN7Pr_Time8GetTicksEv
FNDA:741,_ZN7Pr_Time8GetTicksEv
FN:302,_ZN7Pr_Time8FineTimeEv
FNDA:600,_ZN7Pr_Time8FineTimeEv
FN:313,_ZN7Pr_TimepLERKS_
FNDA:722,_ZN7Pr_TimepLERKS_
FN:319,_ZN7Pr_TimemIERKS_
FNDA:1321,_ZN7Pr_TimemIERKS_
FN:345,_ZN7Pr_TimeaSERKS_
FNDA:3609,_ZN7Pr_TimeaSERKS_
FN:352,_ZN7Pr_TimeeqERKS_
FNDA:0,_ZN7Pr_TimeeqERKS_
FN:357,_ZN7Pr_TimeneERKS_
FNDA:0,_ZN7Pr_TimeneERKS_
FN:362,_ZN7Pr_TimegtERKS_
FNDA:721,_ZN7Pr_TimegtERKS_
FN:367,_ZN7Pr_TimeltERKS_
FNDA:0,_ZN7Pr_TimeltERKS_
FN:372,_ZN7Pr_TimegeERKS_
FNDA:0,_ZN7Pr_TimegeERKS_
FN:377,_ZN7Pr_TimeleERKS_
FNDA:0,_ZN7Pr_TimeleERKS_
FN:384,_ZNK7Pr_Time5TicksEv
FNDA:0,_ZNK7Pr_Time5TicksEv
FN:390,_Z10Pr_DelayInRK7Pr_Time
FNDA:20,_Z10Pr_DelayInRK7Pr_Time
FN:396,_Z10Pr_DelayAtRK7Pr_Time
FNDA:0,_Z10Pr_DelayAtRK7Pr_Time
FN:420,_ZN12Pr_SemaphoreC2Ej
FNDA:69,_ZN12Pr_SemaphoreC2Ej
FN:431,_ZN15Pr_SemaphoreBinC2EPKcj
FNDA:0,_ZN15Pr_SemaphoreBinC2EPKcj
FN:443,_ZN15Pr_SemaphoreBinC2Ej
FNDA:50,_ZN15Pr_SemaphoreBinC2Ej
FN:455,_ZN15Pr_SemaphoreBin6SignalEv
FNDA:3101,_ZN15Pr_SemaphoreBin6SignalEv
FN:463,_ZN15Pr_SemaphoreBin4WaitEv
FNDA:3106,_ZN15Pr_SemaphoreBin4WaitEv
FN:472,_ZN15Pr_SemaphoreBin8WaitCondEv
FNDA:722,_ZN15Pr_SemaphoreBin8WaitCondEv
FN:481,_ZN15Pr_SemaphoreBin9WaitTimedERK7Pr_Time
FNDA:721,_ZN15Pr_SemaphoreBin9WaitTimedERK7Pr_Time
FN:498,_ZN15Pr_SemaphoreRecC2EPKc
FNDA:0,_ZN15Pr_SemaphoreRecC2EPKc
FN:508,_ZN15Pr_SemaphoreRecC2Ev
FNDA:19,_ZN15Pr_SemaphoreRecC2Ev
FN:521,_ZN15Pr_SemaphoreRecC2EPKcj
FNDA:0,_ZN15Pr_SemaphoreRecC2EPKcj
FN:537,_ZN15Pr_SemaphoreRecC2Ei
FNDA:0,_ZN15Pr_SemaphoreRecC2Ei
FN:554,_ZN15Pr_SemaphoreRec6UnLockEv
FNDA:7797,_ZN15Pr_SemaphoreRec6UnLockEv
FN:562,_ZN15Pr_SemaphoreRec4LockEv
FNDA:7797,_ZN15Pr_SemaphoreRec4LockEv
FN:576,_Z7Pr_SendR7Pr_TaskPv
FNDA:731,_Z7Pr_SendR7Pr_TaskPv
FN:583,_Z10Pr_ReceivePvj
FNDA:731,_Z10Pr_ReceivePvj
FN:607,_ZN13Pr_IRQManager7MaskIRQEj
FNDA:1,_ZN13Pr_IRQManager7MaskIRQEj
FN:611,_ZN13Pr_IRQManager10DisableIRQEj
FNDA:0,_ZN13Pr_IRQManager10DisableIRQEj
FN:616,_ZN13Pr_IRQManager9UnMaskIRQEj
FNDA:1,_ZN13Pr_IRQManager9UnMaskIRQEj
FN:620,_ZN13Pr_IRQManager9EnableIRQEj
FNDA:3,_ZN13Pr_IRQManager9EnableIRQEj
FN:625,_ZN13Pr_IRQManager14DisableAllIRQsEv
FNDA:0,_ZN13Pr_IRQManager14DisableAllIRQsEv
FN:630,_ZN13Pr_IRQManager19ApplyCurrentIRQMaskEv
FNDA:0,_ZN13Pr_IRQManager19ApplyCurrentIRQMaskEv
FN:635,_ZN13Pr_IRQManager17InstallIRQHandlerEPFvvEhh
FNDA:1,_ZN13Pr_IRQManager17InstallIRQHandlerEPFvvEhh
FN:642,_ZN13Pr_IRQManager19DeinstallIRQHandlerEhh
FNDA:0,_ZN13Pr_IRQManager19DeinstallIRQHandlerEhh
FN:663,_ZN11Pr_IRQEventC2Eh
FNDA:2,_ZN11Pr_IRQEventC2Eh
FN:670,_ZN11Pr_IRQEvent6SignalEv
FNDA:0,_ZN11Pr_IRQEvent6SignalEv
FN:683,_ZN11Pr_IRQEvent14SignalFromTaskEv
FNDA:3,_ZN11Pr_IRQEvent14SignalFromTaskEv
FN:688,_ZN11Pr_IRQEvent4WaitEv
FNDA:5,_ZN11Pr_IRQEvent4WaitEv
FN:693,_ZN11Pr_IRQEvent9WaitTimedER7Pr_Time
FNDA:0,_ZN11Pr_IRQEvent9WaitTimedER7Pr_Time
FN:700,_ZN11Pr_IRQEvent8WaitCondEv
FNDA:0,_ZN11Pr_IRQEvent8WaitCondEv
DA:35,1
DA:37,12
DA:40,12
DA:41,12
DA:42,12
DA:43,12
DA:44,12
DA:45,12
DA:48,0
DA:50,0
DA:51,0
DA:53,0
DA:55,0
DA:57,0
DA:58,0
DA:60,0
DA:61,0
DA:62,0
DA:66,0
DA:67,0
DA:70,0
DA:73,731
DA:76,731
DA:78,2233
DA:80,2233
DA:82,731
DA:86,1502
DA:89,0
DA:100,1
DA:103,1
DA:105,1
DA:108,1
DA:110,0
DA:112,0
DA:114,0
DA:116,0
DA:126,0
DA:129,0
DA:130,0
DA:131,0
DA:132,0
DA:134,0
DA:135,0
DA:137,0
DA:138,0
DA:139,0
DA:141,0
DA:142,0
DA:143,0
DA:146,0
DA:150,0
DA:152,0
DA:154,12
DA:156,12
DA:157,12
DA:158,12
DA:159,12
DA:163,12
DA:165,12
DA:166,12
DA:167,12
DA:169,12
DA:170,12
DA:171,12
DA:174,12
DA:178,0
DA:180,12
DA:182,0
DA:184,0
DA:186,0
DA:188,0
DA:189,0
DA:191,0
DA:193,721
DA:199,721
DA:201,721
DA:202,721
DA:204,721
DA:206,0
DA:208,0
DA:210,0
DA:211,0
DA:213,0
DA:214,0
DA:217,0
DA:219,720
DA:221,720
DA:223,720
DA:224,720
DA:226,719
DA:228,0
DA:230,0
DA:233,1441
DA:236,1441
DA:237,1441
DA:239,1441
DA:240,1440
DA:249,2869
DA:251,2869
DA:252,2869
DA:253,2869
DA:255,2185
DA:257,2185
DA:258,2185
DA:259,2185
DA:261,723
DA:263,723
DA:264,723
DA:265,723
DA:267,0
DA:272,0
DA:273,0
DA:274,0
DA:275,0
DA:276,0
DA:281,3366
DA:283,3366
DA:284,3366
DA:286,3366
DA:288,3366
DA:289,3366
DA:291,741
DA:293,741
DA:294,741
DA:296,741
DA:297,741
DA:298,741
DA:299,741
DA:302,600
DA:304,600
DA:306,600
DA:313,722
DA:315,722
DA:316,722
DA:319,1321
DA:321,1321
DA:323,1321
DA:324,1321
DA:326,120
DA:328,120
DA:329,120
DA:332,0
DA:335,1201
DA:338,0
DA:340,1321
DA:345,3609
DA:347,3609
DA:348,3609
DA:349,3609
DA:352,0
DA:354,0
DA:357,0
DA:359,0
DA:362,721
DA:364,721
DA:367,0
DA:369,0
DA:372,0
DA:374,0
DA:377,0
DA:379,0
DA:384,0
DA:387,0
DA:390,20
DA:392,20
DA:393,20
DA:394,19
DA:396,0
DA:398,0
DA:399,0
DA:401,0
DA:402,0
DA:403,0
DA:404,0
DA:406,0
DA:410,0
DA:414,0
DA:420,69
DA:422,69
DA:423,69
DA:431,0
DA:432,0
DA:434,0
DA:435,0
DA:437,0
DA:439,0
DA:443,50
DA:445,50
DA:446,50
DA:447,50
DA:449,0
DA:451,50
DA:455,3101
DA:457,3101
DA:459,0
DA:461,3101
DA:463,3106
DA:465,3106
DA:467,0
DA:470,3100
DA:472,722
DA:476,722
DA:478,722
DA:481,721
DA:484,721
DA:486,721
DA:488,720
DA:498,0
DA:500,0
DA:501,0
DA:503,0
DA:505,0
DA:508,19
DA:511,19
DA:512,19
DA:513,19
DA:515,0
DA:517,19
DA:521,0
DA:529,0
DA:530,0
DA:532,0
DA:534,0
DA:537,0
DA:541,0
DA:547,0
DA:548,0
DA:550,0
DA:552,0
DA:554,7797
DA:556,7797
DA:558,0
DA:560,7797
DA:562,7797
DA:564,7797
DA:566,0
DA:569,0
DA:570,0
DA:572,7797
DA:576,731
DA:578,731
DA:579,731
DA:580,731
DA:581,730
DA:583,731
DA:585,731
DA:587,731
DA:591,730
DA:592,730
DA:594,18106
DA:596,17376
DA:599,730
DA:600,730
DA:607,1
DA:609,1
DA:611,0
DA:614,0
DA:616,1
DA:619,1
DA:620,3
DA:623,3
DA:625,0
DA:628,0
DA:630,0
DA:633,0
DA:635,1
DA:640,1
DA:642,0
DA:647,0
DA:663,2
DA:665,2
DA:666,2
DA:670,0
DA:681,0
DA:683,3
DA:685,3
DA:687,3
DA:688,5
DA:690,5
DA:691,3
DA:693,0
DA:696,0
DA:700,0
DA:702,0
end_of_record
SF:/home/atcsol/git/FinalProject_UAH/uah_exp_freertos_project_2024_def/service_libraries/edroomsl/edroombp/include/public/edroombp.h
FN:192,_ZN12Pr_SemaphoreD2Ev
FNDA:0,_ZN12Pr_SemaphoreD2Ev
FN:261,_ZN15Pr_SemaphoreBinD2Ev
FNDA:0,_ZN15Pr_SemaphoreBinD2Ev
DA:192,0
DA:194,0
DA:195,0
DA:261,0
DA:264,0
end_of_record
TN:
SF:/home/atcsol/git/FinalProject_UAH/uah_exp_freertos_project_2024_def/service_libraries/edroomsl/edroombp/include/public/edroombp.h
FN:192,_ZN12Pr_SemaphoreD2Ev
FNDA:0,_ZN12Pr_SemaphoreD2Ev
FN:261,_ZN15Pr_SemaphoreBinD2Ev
FNDA:2,_ZN15Pr_SemaphoreBinD2Ev
FN:310,_ZN15Pr_SemaphoreRec4WaitEv
FNDA:0,_ZN15Pr_SemaphoreRec4WaitEv
FN:319,_ZN15Pr_SemaphoreRec6SignalEv
FNDA:0,_ZN15Pr_SemaphoreRec6SignalEv
FN:337,_ZN15Pr_SemaphoreRecD2Ev
FNDA:0,_ZN15Pr_SemaphoreRecD2Ev
FN:533,_ZN7Pr_TaskD2Ev
FNDA:0,_ZN7Pr_TaskD2Ev
DA:192,0
DA:194,0
DA:195,0
DA:261,2
DA:264,2
DA:310,0
DA:319,0
DA:337,0
DA:533,0
DA:536,0
end_of_record
SF:/home/atcsol/git/FinalProject_UAH/uah_exp_freertos_project_2024_def/service_libraries/edroomsl/edroomsl/src/edroomsl.cpp
FN:102,_ZN17CEDROOMMemoryPool9SetMemoryEjPvPbj
FNDA:25,_ZN17CEDROOMMemoryPool9SetMemoryEjPvPbj
FN:127,_ZN17CEDROOMMemoryPool14GetElementSizeEv
FNDA:0,_ZN17CEDROOMMemoryPool14GetElementSizeEv
FN:135,_ZN17CEDROOMMemoryPool9AllocDataEv
FNDA:1516,_ZN17CEDROOMMemoryPool9AllocDataEv
FN:147,_ZN17CEDROOMMemoryPool9AllocDataERj
FNDA:2308,_ZN17CEDROOMMemoryPool9AllocDataERj
FN:191,_ZN17CEDROOMMemoryPool8FreeDataEPv
FNDA:2299,_ZN17CEDROOMMemoryPool8FreeDataEPv
FN:244,_ZN26CEDROOMProtectedMemoryPoolC2EjPvPbj
FNDA:7,_ZN26CEDROOMProtectedMemoryPoolC2EjPvPbj
FN:256,_ZN26CEDROOMProtectedMemoryPool9AllocDataEv
FNDA:70,_ZN26CEDROOMProtectedMemoryPool9AllocDataEv
FN:268,_ZN26CEDROOMProtectedMemoryPool9AllocDataERj
FNDA:70,_ZN26CEDROOMProtectedMemoryPool9AllocDataERj
FN:285,_ZN26CEDROOMProtectedMemoryPool8FreeDataEPv
FNDA:69,_ZN26CEDROOMProtectedMemoryPool8FreeDataEPv
FN:330,_ZN14CEDROOMMessageC2Ev
FNDA:81,_ZN14CEDROOMMessageC2Ev
FN:345,_ZN14CEDROOMMessage16FreeDeliveryInfoEv
FNDA:70,_ZN14CEDROOMMessage16FreeDeliveryInfoEv
FN:352,_ZN14CEDROOMMessage13GetPInterfaceEv
FNDA:724,_ZN14CEDROOMMessage13GetPInterfaceEv
FN:357,_ZN14CEDROOMMessage14GetMsgDataSizeEv
FNDA:0,_ZN14CEDROOMMessage14GetMsgDataSizeEv
FN:368,_ZN14CEDROOMMessage5replyEi
FNDA:0,_ZN14CEDROOMMessage5replyEi
FN:376,_ZN14CEDROOMMessage5replyEiPvP17CEDROOMMemoryPool
FNDA:0,_ZN14CEDROOMMessage5replyEiPvP17CEDROOMMemoryPool
FN:390,_ZN20CEDROOMSynchrMessageC2Ev
FNDA:6,_ZN20CEDROOMSynchrMessageC2Ev
FN:399,_ZN20CEDROOMSynchrMessage5replyEi
FNDA:65,_ZN20CEDROOMSynchrMessage5replyEi
FN:407,_ZN20CEDROOMSynchrMessage5replyEiPvP17CEDROOMMemoryPool
FNDA:65,_ZN20CEDROOMSynchrMessage5replyEiPvP17CEDROOMMemoryPool
FN:432,_ZN21CEDROOMTimeOutMessage16FreeDeliveryInfoEv
FNDA:719,_ZN21CEDROOMTimeOutMessage16FreeDeliveryInfoEv
FN:457,_ZN25CEDROOMSynchrMessagesPoolC2EP20CEDROOMSynchrMessage
FNDA:6,_ZN25CEDROOMSynchrMessagesPoolC2EP20CEDROOMSynchrMessage
FN:465,_ZN25CEDROOMSynchrMessagesPool14GetElementSizeEv
FNDA:0,_ZN25CEDROOMSynchrMessagesPool14GetElementSizeEv
FN:471,_ZN25CEDROOMSynchrMessagesPool9AllocDataEv
FNDA:65,_ZN25CEDROOMSynchrMessagesPool9AllocDataEv
FN:478,_ZN25CEDROOMSynchrMessagesPool8FreeDataEPv
FNDA:65,_ZN25CEDROOMSynchrMessagesPool8FreeDataEPv
FN:484,_ZN19CEDROOMMessagesPool9SetMemoryEjP14CEDROOMMessagePb
FNDA:6,_ZN19CEDROOMMessagesPool9SetMemoryEjP14CEDROOMMessagePb
FN:492,_ZN19CEDROOMMessagesPool9AllocDataEv
FNDA:5,_ZN19CEDROOMMessagesPool9AllocDataEv
FN:498,_ZN26CEDROOMTimeOutMessagesPool9SetMemoryEjP21CEDROOMTimeOutMessagePb
FNDA:3,_ZN26CEDROOMTimeOutMessagesPool9SetMemoryEjP21CEDROOMTimeOutMessagePb
FN:506,_ZN26CEDROOMTimeOutMessagesPool9AllocDataEv
FNDA:722,_ZN26CEDROOMTimeOutMessagesPool9AllocDataEv
FN:543,_ZN16CEDROOMInterface4sendEi
FNDA:0,_ZN16CEDROOMInterface4sendEi
FN:550,_ZN16CEDROOMInterface4sendEiPvP17CEDROOMMemoryPool
FNDA:2,_ZN16CEDROOMInterface4sendEiPvP17CEDROOMMemoryPool
FN:562,_ZN16CEDROOMInterface6invokeEi
FNDA:0,_ZN16CEDROOMInterface6invokeEi
FN:570,_ZN16CEDROOMInterface6invokeEiPvP17CEDROOMMemoryPool
FNDA:65,_ZN16CEDROOMInterface6invokeEiPvP17CEDROOMMemoryPool
FN:580,_ZN16CEDROOMInterface16applyConverFunctEi
FNDA:65,_ZN16CEDROOMInterface16applyConverFunctEi
FN:588,_ZN16CEDROOMInterfaceeqERS_
FNDA:724,_ZN16CEDROOMInterfaceeqERS_
FN:592,_ZN16CEDROOMInterfaceneERS_
FNDA:0,_ZN16CEDROOMInterfaceneERS_
FN:601,_ZN19CEDROOMIRQInterface14InstallHandlerEv
FNDA:1,_ZN19CEDROOMIRQInterface14InstallHandlerEv
FN:610,_ZN19CEDROOMIRQInterface16DeInstallHandlerEv
FNDA:0,_ZN19CEDROOMIRQInterface16DeInstallHandlerEv
FN:620,_ZN19CEDROOMIRQInterface17EndIRQHandlerTaskEv
FNDA:0,_ZN19CEDROOMIRQInterface17EndIRQHandlerTaskEv
FN:630,_ZN19CEDROOMIRQInterface7MaskIRQEv
FNDA:1,_ZN19CEDROOMIRQInterface7MaskIRQEv
FN:635,_ZN19CEDROOMIRQInterface9UnMaskIRQEv
FNDA:1,_ZN19CEDROOMIRQInterface9UnMaskIRQEv
FN:640,_ZN19CEDROOMIRQInterfaceC2EPFvvES1_R11Pr_IRQEventR15Pr_SemaphoreBina
FNDA:2,_ZN19CEDROOMIRQInterfaceC2EPFvvES1_R11Pr_IRQEventR15Pr_SemaphoreBina
FN:653,_ZN19CEDROOMIRQInterface9NewIRQMsgEiPvP17CEDROOMMemoryPool
FNDA:3,_ZN19CEDROOMIRQInterface9NewIRQMsgEiPvP17CEDROOMMemoryPool
FN:716,_ZN26CEDROOMNonMaskIRQInterfaceC2EPFvvES1_R11Pr_IRQEventR15Pr_SemaphoreBinhPh
FNDA:0,_ZN26CEDROOMNonMaskIRQInterfaceC2EPFvvES1_R11Pr_IRQEventR15Pr_SemaphoreBinhPh
FN:728,_ZN26CEDROOMNonMaskIRQInterface14InstallHandlerEv
FNDA:0,_ZN26CEDROOMNonMaskIRQInterface14InstallHandlerEv
FN:739,_ZN26CEDROOMNonMaskIRQInterface16DeInstallHandlerEv
FNDA:0,_ZN26CEDROOMNonMaskIRQInterface16DeInstallHandlerEv
FN:748,_ZN26CEDROOMNonMaskIRQInterface17EndIRQHandlerTaskEv
FNDA:0,_ZN26CEDROOMNonMaskIRQInterface17EndIRQHandlerTaskEv
FN:790,_ZN12CEDROOMTimerC2Ev
FNDA:722,_ZN12CEDROOMTimerC2Ev
FN:795,_ZN12CEDROOMTimer7IsValidEv
FNDA:0,_ZN12CEDROOMTimer7IsValidEv
FN:807,_ZN22CEDROOMTimingInterfaceC2EP16CEDROOMTimingSAPj
FNDA:3,_ZN22CEDROOMTimingInterfaceC2EP16CEDROOMTimingSAPj
FN:820,_ZN22CEDROOMTimingInterface8InformAtE7Pr_Time
FNDA:722,_ZN22CEDROOMTimingInterface8InformAtE7Pr_Time
FN:833,_ZN22CEDROOMTimingInterface8InformInE7Pr_Time
FNDA:0,_ZN22CEDROOMTimingInterface8InformInE7Pr_Time
FN:849,_ZN22CEDROOMTimingInterface11currentTimeER7Pr_Time
FNDA:0,_ZN22CEDROOMTimingInterface11currentTimeER7Pr_Time
FN:856,_ZN22CEDROOMTimingInterface11currentTimeEv
FNDA:0,_ZN22CEDROOMTimingInterface11currentTimeEv
FN:870,_ZN16CEDROOMTimingSAPC2EP16CEDROOMComponentjP19CEDROOMTimingMemory
FNDA:3,_ZN16CEDROOMTimingSAPC2EP16CEDROOMComponentjP19CEDROOMTimingMemory
FN:895,_ZN16CEDROOMTimingSAP14EDROOMfunTimerEv
FNDA:3,_ZN16CEDROOMTimingSAP14EDROOMfunTimerEv
FN:1056,_ZN16CEDROOMTimingSAP8InformAtEP22CEDROOMTimingInterface7Pr_Time
FNDA:722,_ZN16CEDROOMTimingSAP8InformAtEP22CEDROOMTimingInterface7Pr_Time
FN:1236,_ZN16CEDROOMTimingSAP5StartEv
FNDA:3,_ZN16CEDROOMTimingSAP5StartEv
FN:1248,_ZN19CEDROOMTimingMemory9SetMemoryEjP16CEDROOMTimerInfoPbP21CEDROOMTimeOutMessageS2_
FNDA:3,_ZN19CEDROOMTimingMemory9SetMemoryEjP16CEDROOMTimerInfoPbP21CEDROOMTimeOutMessageS2_
FN:1265,_ZN20CEDROOMTimerInfoPool9SetMemoryEjP16CEDROOMTimerInfoPb
FNDA:3,_ZN20CEDROOMTimerInfoPool9SetMemoryEjP16CEDROOMTimerInfoPb
FN:1276,_ZN20CEDROOMTimerInfoPool9AllocDataERj
FNDA:722,_ZN20CEDROOMTimerInfoPool9AllocDataERj
FN:1310,_ZN12CEDROOMQueue10CQueueNodeC2Ev
FNDA:73,_ZN12CEDROOMQueue10CQueueNodeC2Ev
FN:1318,_ZN12CEDROOMQueue10CQueueHeadC2Ev
FNDA:48,_ZN12CEDROOMQueue10CQueueHeadC2Ev
FN:1328,_ZN12CEDROOMQueueC2EjP7Pr_TaskP15Pr_SemaphoreRectPNS_21CEDROOMQueueNodesPoolEPNS_10CQueueHeadE
FNDA:6,_ZN12CEDROOMQueueC2EjP7Pr_TaskP15Pr_SemaphoreRectPNS_21CEDROOMQueueNodesPoolEPNS_10CQueueHeadE
FN:1361,_ZN12CEDROOMQueue6IsFullEv
FNDA:789,_ZN12CEDROOMQueue6IsFullEv
FN:1369,_ZN12CEDROOMQueue2InEP14CEDROOMMessage
FNDA:789,_ZN12CEDROOMQueue2InEP14CEDROOMMessage
FN:1401,_ZN12CEDROOMQueue3OutERP14CEDROOMMessage
FNDA:793,_ZN12CEDROOMQueue3OutERP14CEDROOMMessage
FN:1456,_ZN12CEDROOMQueue26UpDateSortedQueueHeadsListE15TEDROOMPriority
FNDA:789,_ZN12CEDROOMQueue26UpDateSortedQueueHeadsListE15TEDROOMPriority
FN:1511,_ZN12CEDROOMQueue9PutInNodeEPNS_10CQueueHeadEPNS_10CQueueNodeE
FNDA:789,_ZN12CEDROOMQueue9PutInNodeEPNS_10CQueueHeadEPNS_10CQueueNodeE
FN:1535,_ZN12CEDROOMQueue11TakeOutNodeERPNS_10CQueueNodeER15TEDROOMPriority
FNDA:789,_ZN12CEDROOMQueue11TakeOutNodeERPNS_10CQueueNodeER15TEDROOMPriority
FN:1558,_ZN12CEDROOMQueue21CEDROOMQueueNodesPool9SetMemoryEjPNS_10CQueueNodeEPb
FNDA:6,_ZN12CEDROOMQueue21CEDROOMQueueNodesPool9SetMemoryEjPNS_10CQueueNodeEPb
FN:1569,_ZN12CEDROOMQueue21CEDROOMQueueNodesPool9AllocDataEv
FNDA:789,_ZN12CEDROOMQueue21CEDROOMQueueNodesPool9AllocDataEv
FN:1606,_ZN21CEDROOMLocalTXChannelC2Ev
FNDA:14,_ZN21CEDROOMLocalTXChannelC2Ev
FN:1621,_ZN21CEDROOMLocalTXChannel4sendEiPvP17CEDROOMMemoryPool
FNDA:2,_ZN21CEDROOMLocalTXChannel4sendEiPvP17CEDROOMMemoryPool
FN:1693,_ZN21CEDROOMLocalTXChannel6invokeEiPvP17CEDROOMMemoryPool
FNDA:65,_ZN21CEDROOMLocalTXChannel6invokeEiPvP17CEDROOMMemoryPool
FN:1782,_ZN19CEDROOMLocalCommSAP17RegisterInterfaceEjR16CEDROOMInterfaceP16CEDROOMComponent
FNDA:19,_ZN19CEDROOMLocalCommSAP17RegisterInterfaceEjR16CEDROOMInterfaceP16CEDROOMComponent
FN:1795,_ZN19CEDROOMLocalCommSAP7ConnectER16CEDROOMInterfaceS1_R22CEDROOMLocalConnectionPFiiES5_
FNDA:7,_ZN19CEDROOMLocalCommSAP7ConnectER16CEDROOMInterfaceS1_R22CEDROOMLocalConnectionPFiiES5_
FN:1860,_ZN16CEDROOMComponentC2Ejtj15TEDROOMPriorityjP22CEDROOMComponentMemory
FNDA:6,_ZN16CEDROOMComponentC2Ejtj15TEDROOMPriorityjP22CEDROOMComponentMemory
FN:1891,_ZN16CEDROOMComponentC2EPKcjtj15TEDROOMPriorityjP22CEDROOMComponentMemory
FNDA:0,_ZN16CEDROOMComponentC2EPKcjtj15TEDROOMPriorityjP22CEDROOMComponentMemory
FN:1923,_ZN16CEDROOMComponentD2Ev
FNDA:0,_ZN16CEDROOMComponentD2Ev
FN:1923,_ZN16CEDROOMComponentD0Ev
FNDA:0,_ZN16CEDROOMComponentD0Ev
FN:1930,_ZN16CEDROOMComponent13EDROOMDestroyEv
FNDA:0,_ZN16CEDROOMComponent13EDROOMDestroyEv
FN:1969,_ZN16CEDROOMComponent11EDROOMStartEv
FNDA:6,_ZN16CEDROOMComponent11EDROOMStartEv
FN:1984,_ZN16CEDROOMComponent12EDROOMNewMsgEv
FNDA:793,_ZN16CEDROOMComponent12EDROOMNewMsgEv
FN:2009,_ZN16CEDROOMComponent17EDROOMFreeMessageERP14CEDROOMMessage
FNDA:793,_ZN16CEDROOMComponent17EDROOMFreeMessageERP14CEDROOMMessage
FN:2037,_ZN16CEDROOMComponent21EDROOMFreeMsgBackDataEv
FNDA:858,_ZN16CEDROOMComponent21EDROOMFreeMsgBackDataEv
FN:2055,_ZN16CEDROOMComponent19EDROOMComponentTaskEv
FNDA:6,_ZN16CEDROOMComponent19EDROOMComponentTaskEv
FN:2071,_ZN22CEDROOMComponentMemory9SetMemoryEjP14CEDROOMMessagePbjPN12CEDROOMQueue10CQueueNodeES2_PNS3_10CQueueHeadE
FNDA:6,_ZN22CEDROOMComponentMemory9SetMemoryEjP14CEDROOMMessagePbjPN12CEDROOMQueue10CQueueNodeES2_PNS3_10CQueueHeadE
DA:102,25
DA:108,25
DA:111,25
DA:113,246
DA:114,221
DA:117,25
DA:120,25
DA:123,25
DA:125,25
DA:127,0
DA:128,0
DA:135,1516
DA:139,1516
DA:147,2308
DA:149,2308
DA:153,2308
DA:156,2308
DA:159,2308
DA:160,2308
DA:163,2308
DA:164,2308
DA:165,2308
DA:169,2308
DA:171,2308
DA:174,2308
DA:176,2308
DA:178,2308
DA:181,0
DA:184,2308
DA:191,2299
DA:199,2299
DA:202,2299
DA:204,2299
DA:206,2299
DA:210,0
DA:215,2299
DA:218,2299
DA:221,2299
DA:222,0
DA:224,2299
DA:226,2299
DA:229,2299
DA:244,7
DA:245,7
DA:248,7
DA:250,7
DA:256,70
DA:260,140
DA:268,70
DA:272,70
DA:274,70
DA:276,70
DA:278,70
DA:285,69
DA:289,69
DA:291,69
DA:293,69
DA:295,69
DA:330,81
DA:332,81
DA:333,81
DA:334,81
DA:335,81
DA:336,81
DA:337,81
DA:338,81
DA:340,81
DA:345,70
DA:347,70
DA:352,724
DA:353,724
DA:357,0
DA:358,0
DA:359,0
DA:360,0
DA:362,0
DA:368,0
DA:372,0
DA:373,0
DA:376,0
DA:381,0
DA:382,0
DA:390,6
DA:391,6
DA:392,6
DA:393,6
DA:394,6
DA:399,65
DA:401,65
DA:403,65
DA:407,65
DA:410,65
DA:412,65
DA:413,65
DA:415,65
DA:416,0
DA:417,0
DA:420,65
DA:422,65
DA:423,65
DA:425,65
DA:432,719
DA:434,719
DA:436,719
DA:438,719
DA:440,719
DA:442,719
DA:446,719
DA:448,719
DA:457,6
DA:458,6
DA:459,6
DA:461,6
DA:463,6
DA:465,0
DA:466,0
DA:471,65
DA:473,65
DA:474,65
DA:478,65
DA:480,65
DA:481,65
DA:484,6
DA:487,6
DA:490,6
DA:492,5
DA:494,5
DA:498,3
DA:501,3
DA:504,3
DA:506,722
DA:508,722
DA:543,0
DA:546,0
DA:548,0
DA:550,2
DA:555,2
DA:557,2
DA:562,0
DA:564,0
DA:570,65
DA:573,65
DA:580,65
DA:582,65
DA:588,724
DA:589,724
DA:592,0
DA:593,0
DA:601,1
DA:602,1
DA:603,1
DA:605,1
DA:608,1
DA:610,0
DA:611,0
DA:612,0
DA:613,0
DA:614,0
DA:615,0
DA:618,0
DA:620,0
DA:622,0
DA:623,0
DA:624,0
DA:625,0
DA:626,0
DA:628,0
DA:630,1
DA:632,1
DA:633,1
DA:635,1
DA:637,1
DA:638,1
DA:640,2
DA:642,2
DA:644,2
DA:645,2
DA:646,2
DA:647,2
DA:648,2
DA:649,2
DA:651,2
DA:653,3
DA:659,3
DA:662,3
DA:665,0
DA:667,3
DA:670,0
DA:675,3
DA:679,3
DA:683,3
DA:686,3
DA:689,3
DA:691,3
DA:692,3
DA:693,0
DA:698,3
DA:701,3
DA:704,3
DA:709,3
DA:711,3
DA:716,0
DA:719,0
DA:721,0
DA:723,0
DA:724,0
DA:726,0
DA:728,0
DA:730,0
DA:731,0
DA:732,0
DA:734,0
DA:737,0
DA:739,0
DA:740,0
DA:741,0
DA:742,0
DA:743,0
DA:746,0
DA:748,0
DA:750,0
DA:751,0
DA:752,0
DA:753,0
DA:755,0
DA:790,722
DA:791,722
DA:792,722
DA:793,722
DA:795,0
DA:796,0
DA:807,3
DA:808,3
DA:810,3
DA:812,3
DA:813,3
DA:815,3
DA:820,722
DA:822,722
DA:833,0
DA:835,0
DA:837,0
DA:839,0
DA:842,0
DA:849,0
DA:850,0
DA:851,0
DA:856,0
DA:857,0
DA:858,0
DA:859,0
DA:870,3
DA:871,3
DA:873,3
DA:876,6
DA:880,3
DA:882,3
DA:884,3
DA:886,3
DA:888,3
DA:890,3
DA:895,3
DA:901,3
DA:903,3
DA:904,3
DA:908,3
DA:911,3
DA:914,3
DA:918,722
DA:921,722
DA:923,721
DA:926,721
DA:929,721
DA:931,721
DA:934,721
DA:937,721
DA:938,721
DA:940,721
DA:942,720
DA:947,720
DA:950,719
DA:954,719
DA:958,719
DA:961,719
DA:965,719
DA:968,719
DA:971,719
DA:973,719
DA:975,0
DA:979,719
DA:984,719
DA:987,719
DA:992,719
DA:994,0
DA:996,0
DA:998,0
DA:1001,0
DA:1004,0
DA:1007,0
DA:1012,0
DA:1015,0
DA:1018,0
DA:1020,0
DA:1022,0
DA:1026,0
DA:1031,0
DA:1034,0
DA:1037,0
DA:1044,719
DA:1056,722
DA:1062,722
DA:1065,722
DA:1067,722
DA:1069,0
DA:1072,0
DA:1079,722
DA:1082,722
DA:1085,722
DA:1088,722
DA:1091,722
DA:1093,722
DA:1095,722
DA:1100,722
DA:1103,722
DA:1107,722
DA:1111,722
DA:1113,722
DA:1115,722
DA:1117,722
DA:1119,722
DA:1121,722
DA:1123,722
DA:1125,722
DA:1127,722
DA:1129,722
DA:1133,722
DA:1137,722
DA:1139,722
DA:1143,0
DA:1144,0
DA:1150,0
DA:1152,0
DA:1153,0
DA:1157,0
DA:1160,0
DA:1166,0
DA:1170,0
DA:1173,0
DA:1177,0
DA:1179,0
DA:1181,0
DA:1184,0
DA:1187,0
DA:1188,0
DA:1192,0
DA:1200,722
DA:1202,722
DA:1203,722
DA:1209,722
DA:1211,722
DA:1215,722
DA:1219,722
DA:1220,721
DA:1225,721
DA:1230,721
DA:1236,3
DA:1240,3
DA:1241,3
DA:1243,3
DA:1248,3
DA:1255,3
DA:1258,3
DA:1260,3
DA:1265,3
DA:1268,3
DA:1271,3
DA:1276,722
DA:1278,722
DA:1310,73
DA:1311,73
DA:1312,73
DA:1313,73
DA:1318,48
DA:1319,48
DA:1320,48
DA:1321,48
DA:1322,48
DA:1323,48
DA:1328,6
DA:1330,6
DA:1331,6
DA:1335,6
DA:1337,6
DA:1338,6
DA:1339,6
DA:1341,6
DA:1342,6
DA:1344,6
DA:1345,6
DA:1347,54
DA:1348,48
DA:1350,6
DA:1352,6
DA:1361,789
DA:1363,789
DA:1369,789
DA:1371,789
DA:1375,789
DA:1376,789
DA:1377,789
DA:1379,789
DA:1383,789
DA:1385,789
DA:1389,789
DA:1391,789
DA:1392,789
DA:1396,789
DA:1401,793
DA:1408,793
DA:1412,793
DA:1414,793
DA:1418,793
DA:1421,793
DA:1427,789
DA:1434,789
DA:1436,789
DA:1438,789
DA:1442,789
DA:1444,789
DA:1446,789
DA:1450,789
DA:1452,789
DA:1456,789
DA:1460,789
DA:1462,789
DA:1464,789
DA:1466,789
DA:1467,789
DA:1469,0
DA:1471,0
DA:1472,0
DA:1473,0
DA:1476,0
DA:1478,0
DA:1480,0
DA:1482,0
DA:1483,0
DA:1484,0
DA:1488,0
DA:1489,0
DA:1491,0
DA:1493,0
DA:1494,0
DA:1495,0
DA:1502,789
DA:1511,789
DA:1512,789
DA:1514,789
DA:1516,0
DA:1517,0
DA:1518,0
DA:1521,789
DA:1523,789
DA:1526,789
DA:1535,789
DA:1540,789
DA:1542,789
DA:1545,789
DA:1549,789
DA:1551,789
DA:1553,789
DA:1558,6
DA:1561,6
DA:1564,6
DA:1569,789
DA:1571,789
DA:1606,14
DA:1608,14
DA:1609,14
DA:1611,14
DA:1612,14
DA:1613,14
DA:1614,14
DA:1616,14
DA:1621,2
DA:1627,2
DA:1628,2
DA:1629,0
DA:1632,0
DA:1634,0
DA:1639,2
DA:1642,2
DA:1645,0
DA:1647,0
DA:1649,2
DA:1652,0
DA:1654,0
DA:1658,2
DA:1659,2
DA:1664,2
DA:1667,2
DA:1670,2
DA:1673,2
DA:1676,2
DA:1679,2
DA:1682,2
DA:1683,2
DA:1684,2
DA:1688,2
DA:1693,65
DA:1697,65
DA:1704,65
DA:1709,65
DA:1712,65
DA:1715,65
DA:1718,65
DA:1721,65
DA:1722,65
DA:1723,0
DA:1726,65
DA:1731,65
DA:1735,65
DA:1738,65
DA:1741,65
DA:1744,65
DA:1747,65
DA:1749,65
DA:1751,0
DA:1753,0
DA:1754,0
DA:1755,0
DA:1756,0
DA:1757,0
DA:1758,0
DA:1761,65
DA:1763,65
DA:1765,65
DA:1767,65
DA:1771,65
DA:1782,19
DA:1785,19
DA:1787,19
DA:1789,19
DA:1795,7
DA:1801,7
DA:1803,7
DA:1805,7
DA:1807,7
DA:1811,7
DA:1812,7
DA:1816,7
DA:1817,7
DA:1818,7
DA:1819,7
DA:1823,7
DA:1824,7
DA:1826,7
DA:1860,6
DA:1862,6
DA:1863,6
DA:1864,6
DA:1867,6
DA:1871,6
DA:1873,6
DA:1875,6
DA:1877,6
DA:1879,6
DA:1880,6
DA:1882,6
DA:1884,6
DA:1886,6
DA:1891,0
DA:1894,0
DA:1895,0
DA:1896,0
DA:1899,0
DA:1903,0
DA:1905,0
DA:1907,0
DA:1909,0
DA:1911,0
DA:1912,0
DA:1914,0
DA:1916,0
DA:1918,0
DA:1923,0
DA:1925,0
DA:1923,0
DA:1925,0
DA:1930,0
DA:1934,0
DA:1936,0
DA:1938,0
DA:1940,0
DA:1943,0
DA:1946,0
DA:1950,0
DA:1952,0
DA:1955,0
DA:1959,0
DA:1962,0
DA:1964,0
DA:1969,6
DA:1972,6
DA:1974,6
DA:1976,6
DA:1984,793
DA:1987,793
DA:1990,793
DA:1993,793
DA:1996,793
DA:1999,793
DA:2002,789
DA:2004,789
DA:2009,793
DA:2012,793
DA:2014,787
DA:2015,69
DA:2016,69
DA:2018,0
DA:2024,787
DA:2026,787
DA:2027,787
DA:2029,787
DA:2032,793
DA:2037,858
DA:2039,858
DA:2040,0
DA:2041,0
DA:2042,0
DA:2044,0
DA:2048,858
DA:2055,6
DA:2058,6
DA:2060,6
DA:2062,0
DA:2071,6
DA:2078,6
DA:2080,6
DA:2083,6
DA:2085,6
end_of_record
SF:/home/atcsol/git/FinalProject_UAH/uah_exp_freertos_project_2024_def/service_libraries/edroomsl/edroomsl/include/edroomsl/edroomsl.h
FN:115,_ZN11CEDROOMPoolD2Ev
FNDA:20,_ZN11CEDROOMPoolD2Ev
FN:115,_ZN11CEDROOMPoolD0Ev
FNDA:0,_ZN11CEDROOMPoolD0Ev
FN:231,_ZN17CEDROOMMemoryPool7IsEmptyEv
FNDA:1519,_ZN17CEDROOMMemoryPool7IsEmptyEv
FN:236,_ZN17CEDROOMMemoryPoolD2Ev
FNDA:20,_ZN17CEDROOMMemoryPoolD2Ev
FN:236,_ZN17CEDROOMMemoryPoolD0Ev
FNDA:0,_ZN17CEDROOMMemoryPoolD0Ev
FN:314,_ZN26CEDROOMProtectedMemoryPoolD2Ev
FNDA:2,_ZN26CEDROOMProtectedMemoryPoolD2Ev
FN:314,_ZN26CEDROOMProtectedMemoryPoolD0Ev
FNDA:0,_ZN26CEDROOMProtectedMemoryPoolD0Ev
FN:578,_ZN14CEDROOMMessageD2Ev
FNDA:69,_ZN14CEDROOMMessageD2Ev
FN:578,_ZN14CEDROOMMessageD0Ev
FNDA:0,_ZN14CEDROOMMessageD0Ev
FN:643,_ZN20CEDROOMSynchrMessageD0Ev
FNDA:0,_ZN20CEDROOMSynchrMessageD0Ev
FN:643,_ZN20CEDROOMSynchrMessageD2Ev
FNDA:0,_ZN20CEDROOMSynchrMessageD2Ev
FN:688,_ZN21CEDROOMTimeOutMessageD2Ev
FNDA:9,_ZN21CEDROOMTimeOutMessageD2Ev
FN:688,_ZN21CEDROOMTimeOutMessageD0Ev
FNDA:0,_ZN21CEDROOMTimeOutMessageD0Ev
FN:812,_ZN25CEDROOMSynchrMessagesPoolD2Ev
FNDA:0,_ZN25CEDROOMSynchrMessagesPoolD2Ev
FN:812,_ZN25CEDROOMSynchrMessagesPoolD0Ev
FNDA:0,_ZN25CEDROOMSynchrMessagesPoolD0Ev
FN:1808,_ZN16CEDROOMTXChannelC2Ev
FNDA:14,_ZN16CEDROOMTXChannelC2Ev
FN:1812,_ZN16CEDROOMTXChannelD2Ev
FNDA:14,_ZN16CEDROOMTXChannelD2Ev
FN:1812,_ZN16CEDROOMTXChannelD0Ev
FNDA:0,_ZN16CEDROOMTXChannelD0Ev
FN:1883,_ZN21CEDROOMLocalTXChannelD2Ev
FNDA:14,_ZN21CEDROOMLocalTXChannelD2Ev
FN:1883,_ZN21CEDROOMLocalTXChannelD0Ev
FNDA:0,_ZN21CEDROOMLocalTXChannelD0Ev
FN:2224,_ZN16CEDROOMComponent12SetErrorFlagE15TEDROOMCmpError
FNDA:0,_ZN16CEDROOMComponent12SetErrorFlagE15TEDROOMCmpError
FN:2248,_ZN16CEDROOMComponent14GetNomPriorityEv
FNDA:792,_ZN16CEDROOMComponent14GetNomPriorityEv
DA:115,0
DA:115,20
DA:231,1519
DA:236,0
DA:236,20
DA:314,0
DA:314,2
DA:578,0
DA:578,69
DA:643,0
DA:643,0
DA:688,0
DA:688,9
DA:812,0
DA:812,0
DA:1808,14
DA:1812,0
DA:1812,14
DA:1883,0
DA:1883,14
DA:2224,0
DA:2225,0
DA:2248,792
end_of_record
TN:
SF:/home/atcsol/git/FinalProject_UAH/uah_exp_freertos_project_2024_def/service_libraries/edroomsl/edroomsl/src/edroomtc.cpp
FN:9,_ZN13CEDROOMstreamC2Ev
FNDA:0,_ZN13CEDROOMstreamC2Ev
FN:21,_ZN13CEDROOMstreamC2EPKc
FNDA:0,_ZN13CEDROOMstreamC2EPKc
FN:26,_ZN13CEDROOMstream4openEPKci
FNDA:0,_ZN13CEDROOMstream4openEPKci
FN:31,_ZN13CEDROOMstream5closeEv
FNDA:0,_ZN13CEDROOMstream5closeEv
FN:36,_ZN13CEDROOMstream6reopenEv
FNDA:0,_ZN13CEDROOMstream6reopenEv
FN:41,_ZN13CEDROOMstream7is_openEv
FNDA:0,_ZN13CEDROOMstream7is_openEv
FN:46,_ZN13CEDROOMstream4goodEv
FNDA:0,_ZN13CEDROOMstream4goodEv
FN:51,_ZN13CEDROOMstreamlsEPKc
FNDA:0,_ZN13CEDROOMstreamlsEPKc
FN:58,_ZN13CEDROOMstreamlsERKi
FNDA:0,_ZN13CEDROOMstreamlsERKi
FN:66,_ZN13CEDROOMstreamlsERKj
FNDA:0,_ZN13CEDROOMstreamlsERKj
FN:74,_ZN13CEDROOMstreamlsERKf
FNDA:0,_ZN13CEDROOMstreamlsERKf
DA:9,0
DA:11,0
DA:14,0
DA:16,0
DA:19,0
DA:21,0
DA:23,0
DA:24,0
DA:26,0
DA:29,0
DA:31,0
DA:34,0
DA:36,0
DA:39,0
DA:41,0
DA:43,0
DA:46,0
DA:48,0
DA:51,0
DA:54,0
DA:55,0
DA:58,0
DA:61,0
DA:63,0
DA:66,0
DA:69,0
DA:71,0
DA:74,0
DA:76,0
end_of_record
TN:
SF:/home/atcsol/git/FinalProject_UAH/uah_exp_freertos_project_2024_def/service_libraries/edroomsl/edroomsl_types/src/edroomsl_types.cpp
FN:4,TEDROOMUInt64_Serialize
FNDA:0,TEDROOMUInt64_Serialize
FN:9,TEDROOMUInt64_Deserialize
FNDA:0,TEDROOMUInt64_Deserialize
FN:14,TEDROOMUInt32_Serialize
FNDA:0,TEDROOMUInt32_Serialize
FN:19,TEDROOMUInt32_Deserialize
FNDA:0,TEDROOMUInt32_Deserialize
FN:24,TEDROOMUInt16_Serialize
FNDA:0,TEDROOMUInt16_Serialize
FN:29,TEDROOMUInt8_Serialize
FNDA:0,TEDROOMUInt8_Serialize
FN:34,TEDROOMUInt8_Deserialize
FNDA:0,TEDROOMUInt8_Deserialize
FN:39,TEDROOMUInt16_Deserialize
FNDA:0,TEDROOMUInt16_Deserialize
DA:4,0
DA:6,0
DA:7,0
DA:9,0
DA:11,0
DA:12,0
DA:14,0
DA:16,0
DA:17,0
DA:19,0
DA:21,0
DA:22,0
DA:24,0
DA:26,0
DA:27,0
DA:29,0
DA:31,0
DA:32,0
DA:34,0
DA:36,0
DA:37,0
DA:39,0
DA:41,0
DA:42,0
end_of_record
SF:/home/atcsol/git/FinalProject_UAH/uah_exp_freertos_project_2024_def/service_libraries/edroomsl/edroomsl_types/include/edroomsl_types/edroomsl_types.h
FN:33,_edroom_switch16
FNDA:0,_edroom_switch16
FN:38,_edroom_switch32
FNDA:0,_edroom_switch32
FN:46,_edroom_switch64
FNDA:0,_edroom_switch64
DA:33,0
DA:35,0
DA:38,0
DA:40,0
DA:41,0
DA:42,0
DA:46,0
DA:48,0
DA:49,0
DA:50,0
DA:51,0
DA:52,0
DA:53,0
DA:54,0
end_of_record
TN:
SF:/home/atcsol/git/FinalProject_UAH/uah_exp_freertos_project_2024_def/service_libraries/emu_tc_programming/src/emu_tc_programming.cpp
end_of_record
